Microchip Technology Inc, v2.10 (B)

Tool Name:
  c:\program files\microchip\xc16\v2.10\bin\bin\..\bin/elf-ld.exe

Command:
  -p33CK64MC105 \
  --mdfp=C:/Program Files/Microchip/MPLABX/v6.20/packs/Microchip/dsPIC33CK-MC_DFP/1.7.244/xc16 \
  -o \
  dist/default/production/firmware.production.elf \
  -Lc:/program files/microchip/xc16/v2.10/bin/bin/.. \
  -LC:/Program Files/Microchip/MPLABX/v6.20/packs/Microchip/dsPIC33CK-MC_DFP/1.7.244/xc16/bin/../support/dsPIC33C/gld \
  -Lc:/program files/microchip/xc16/v2.10/bin/bin/../../lib \
  -Lc:/program files/microchip/xc16/v2.10/bin/bin/../../support/PIC24E/gld \
  -Lc:/program files/microchip/xc16/v2.10/bin/bin/../../support/PIC24F/gld \
  -Lc:/program files/microchip/xc16/v2.10/bin/bin/../../support/PIC24H/gld \
  -Lc:/program files/microchip/xc16/v2.10/bin/bin/../../support/dsPIC30F/gld \
  -Lc:/program files/microchip/xc16/v2.10/bin/bin/../../support/dsPIC33C/gld \
  -Lc:/program files/microchip/xc16/v2.10/bin/bin/../../support/dsPIC33E/gld \
  -Lc:/program files/microchip/xc16/v2.10/bin/bin/../../support/dsPIC33F/gld \
  C:\Users\rbair\AppData\Local\Temp\cc7sN7ja.000013b8.o \
  C:\Users\rbair\AppData\Local\Temp\ccMupnzh.000013b8.o \
  --local-stack \
  --preserved=firmware.production.elf \
  --defsym=__MPLAB_BUILD=1 \
  -Tlinkscript.gld.00 \
  --stack=16 \
  --check-sections \
  --no-data-init \
  --pack-data \
  --handles \
  --isr \
  --no-gc-sections \
  --fill-upper=0 \
  --stackguard=16 \
  --no-force-link \
  --smart-io \
  -Map=dist/default/production/firmware.production.map \
  --report-mem \
  --memorysummary \
  dist/default/production/memoryfile.xml \
  -start-group \
  --library=c99-pic30-elf \
  --library=m-elf \
  --library=c99-elf \
  -end-group \


Optional library libp33CK64MC105.a not found
Archive member included because of file (symbol)

c:/program files/microchip/xc16/v2.10/bin/bin/../../lib\libc99-pic30-elf.a(crt1_extendedch.o)
                              (__resetALT)
c:/program files/microchip/xc16/v2.10/bin/bin/../../lib\libc99-pic30-elf.a(crt_start_mode_normalch.Meo)
                              (__crt_start_mode)
c:/program files/microchip/xc16/v2.10/bin/bin/../../lib\libc99-pic30-elf.a(delay32ch.Meo)
                              C:\Users\rbair\AppData\Local\Temp\ccMupnzh.000013b8.o (___delay32)
c:/program files/microchip/xc16/v2.10/bin/bin/../../lib\libc99-elf.a(memcmp.CH_o)
                              C:\Users\rbair\AppData\Local\Temp\ccMupnzh.000013b8.o (_memcmp)


Selected CodeGuard Options:
  FSEC:BWRP:OFF
  FSEC:BSS:DISABLED
  FSEC:BSEN:OFF
  FSEC:GWRP:OFF
  FSEC:GSS:DISABLED
  FSEC:CWRP:OFF
  FSEC:CSS:DISABLED
  FSEC:AIVTDIS:OFF

CodeGuard FLASH Memory:
  boot    (none)
  secure  (none)
  general 0x200 to 0xaefe

CodeGuard RAM Memory:
  general 0x1000 to 0x2fff
  secure  (none)
  boot    (none)


xc16-ld 2.10 (B)

Default Code Model: Small
Default Data Model: Large
Default Scalar Model: Small

"program" Memory  [Origin = 0x200, Length = 0xad00]

section                    address   length (PC units)   length (bytes) (dec)
-------                    -------   -----------------   --------------------
.text                        0x200              0x3622          0x5133  (20787)
.const                      0x3822               0x974           0xe2e  (3630)
.newcode                    0x4800                 0x2             0x3  (3)

                 Total "program" memory used (bytes):         0x5f64  (24420) 36%


"data" Memory  [Origin = 0x1000, Length = 0x2000]

section                    address      alignment gaps    total length  (dec)
-------                    -------      --------------    -------------------
.mr_buffer1                 0x1000                   0           0xc00  (3072)
.mr_buffer2                 0x1c00                   0           0xc00  (3072)
.queueInfo                  0x2800                   0           0x402  (1026)
.diskBuffer                 0x2c02                   0           0x200  (512)
.coreInfo                   0x2e02                   0            0x70  (112)
.fileSystemInfo             0x2e72                   0            0x34  (52)
.updateInfo                 0x2ea6                   0            0x18  (24)
.stateVars                  0x2ebe                   0             0xe  (14)
.diskInfo                   0x2ecc                   0             0xc  (12)
.data                       0x2ed8                   0             0x4  (4)

                 Total "data" memory used (bytes):         0x1edc  (7900) 96%


Dynamic Memory Usage

region                     address                      maximum length  (dec)
------                     -------                      ---------------------
heap                             0                                   0  (0)
stack                       0x2edc                               0x124  (292)

                 Maximum dynamic memory (bytes):          0x124  (292)


External Symbols in Data Memory (by address):

                    0x1000                  _mr_buffer1
                    0x1c00                  _mr_buffer2
                    0x2800                  _qinfo
                    0x2c02                  _diskBuffer
                    0x2e02                  _r_coreInfo
                    0x2e72                  _fsInfo
                    0x2ea6                  _uInfo
                    0x2ebe                  _state
                    0x2ecc                  _dinfo
                    0x2ed8                  _FlashKey

External Symbols in Data Memory (by name):

                    0x2ed8                  _FlashKey
                    0x2ecc                  _dinfo
                    0x2c02                  _diskBuffer
                    0x2e72                  _fsInfo
                    0x1000                  _mr_buffer1
                    0x1c00                  _mr_buffer2
                    0x2800                  _qinfo
                    0x2e02                  _r_coreInfo
                    0x2ebe                  _state
                    0x2ea6                  _uInfo

External Symbols in Program Memory (by address):

                  0x000200                  __resetALT
                  0x00064a                  __SoftTrapError
                  0x00066e                  __HardTrapError
                  0x00068a                  __MathError
                  0x0006a6                  __AddressError
                  0x0006c2                  __StackError
                  0x0006de                  __OscillatorFail
                  0x0006fa                  __CNCInterrupt
                  0x000712                  C:\Users\rbair\AppData\Local\Temp\ccMupnzh.000013b8.o:.L268
                  0x000722                  C:\Users\rbair\AppData\Local\Temp\ccMupnzh.000013b8.o:.L269
                  0x00072e                  C:\Users\rbair\AppData\Local\Temp\ccMupnzh.000013b8.o:.L270
                  0x00073a                  C:\Users\rbair\AppData\Local\Temp\ccMupnzh.000013b8.o:.L271
                  0x000746                  C:\Users\rbair\AppData\Local\Temp\ccMupnzh.000013b8.o:.L272
                  0x000752                  C:\Users\rbair\AppData\Local\Temp\ccMupnzh.000013b8.o:.L273
                  0x00075e                  C:\Users\rbair\AppData\Local\Temp\ccMupnzh.000013b8.o:.L274
                  0x00076a                  C:\Users\rbair\AppData\Local\Temp\ccMupnzh.000013b8.o:.L275
                  0x000774                  C:\Users\rbair\AppData\Local\Temp\ccMupnzh.000013b8.o:.L276
                  0x000780                  C:\Users\rbair\AppData\Local\Temp\ccMupnzh.000013b8.o:.L277
                  0x00078a                  C:\Users\rbair\AppData\Local\Temp\ccMupnzh.000013b8.o:.L278
                  0x000796                  C:\Users\rbair\AppData\Local\Temp\ccMupnzh.000013b8.o:.L279
                  0x0007a2                  C:\Users\rbair\AppData\Local\Temp\ccMupnzh.000013b8.o:.L280
                  0x0007ae                  C:\Users\rbair\AppData\Local\Temp\ccMupnzh.000013b8.o:.L281
                  0x0007ba                  C:\Users\rbair\AppData\Local\Temp\ccMupnzh.000013b8.o:.L282
                  0x0007c6                  C:\Users\rbair\AppData\Local\Temp\ccMupnzh.000013b8.o:.L283
                  0x0007d2                  C:\Users\rbair\AppData\Local\Temp\ccMupnzh.000013b8.o:.L284
                  0x0007de                  C:\Users\rbair\AppData\Local\Temp\ccMupnzh.000013b8.o:.L285
                  0x0007ea                  C:\Users\rbair\AppData\Local\Temp\ccMupnzh.000013b8.o:.L286
                  0x0007f6                  C:\Users\rbair\AppData\Local\Temp\ccMupnzh.000013b8.o:.L287
                  0x000802                  C:\Users\rbair\AppData\Local\Temp\ccMupnzh.000013b8.o:.L288
                  0x00080e                  C:\Users\rbair\AppData\Local\Temp\ccMupnzh.000013b8.o:.L289
                  0x00081a                  C:\Users\rbair\AppData\Local\Temp\ccMupnzh.000013b8.o:.L290
                  0x000826                  C:\Users\rbair\AppData\Local\Temp\ccMupnzh.000013b8.o:.L291
                  0x000832                  C:\Users\rbair\AppData\Local\Temp\ccMupnzh.000013b8.o:.L292
                  0x00083e                  C:\Users\rbair\AppData\Local\Temp\ccMupnzh.000013b8.o:.L293
                  0x00084a                  C:\Users\rbair\AppData\Local\Temp\ccMupnzh.000013b8.o:.L294
                  0x000856                  C:\Users\rbair\AppData\Local\Temp\ccMupnzh.000013b8.o:.L295
                  0x000862                  C:\Users\rbair\AppData\Local\Temp\ccMupnzh.000013b8.o:.L296
                  0x00086e                  C:\Users\rbair\AppData\Local\Temp\ccMupnzh.000013b8.o:.L297
                  0x00087a                  C:\Users\rbair\AppData\Local\Temp\ccMupnzh.000013b8.o:.L298
                  0x000886                  C:\Users\rbair\AppData\Local\Temp\ccMupnzh.000013b8.o:.L299
                  0x000892                  C:\Users\rbair\AppData\Local\Temp\ccMupnzh.000013b8.o:.L300
                  0x00089e                  C:\Users\rbair\AppData\Local\Temp\ccMupnzh.000013b8.o:.L301
                  0x0008aa                  C:\Users\rbair\AppData\Local\Temp\ccMupnzh.000013b8.o:.L302
                  0x0008b6                  C:\Users\rbair\AppData\Local\Temp\ccMupnzh.000013b8.o:.L303
                  0x0008c2                  C:\Users\rbair\AppData\Local\Temp\ccMupnzh.000013b8.o:.L304
                  0x0008ce                  C:\Users\rbair\AppData\Local\Temp\ccMupnzh.000013b8.o:.L305
                  0x0008da                  C:\Users\rbair\AppData\Local\Temp\ccMupnzh.000013b8.o:.L306
                  0x0008e6                  C:\Users\rbair\AppData\Local\Temp\ccMupnzh.000013b8.o:.L307
                  0x0008f2                  C:\Users\rbair\AppData\Local\Temp\ccMupnzh.000013b8.o:.L308
                  0x0008fe                  C:\Users\rbair\AppData\Local\Temp\ccMupnzh.000013b8.o:.L309
                  0x00090a                  C:\Users\rbair\AppData\Local\Temp\ccMupnzh.000013b8.o:.L310
                  0x000916                  C:\Users\rbair\AppData\Local\Temp\ccMupnzh.000013b8.o:.L311
                  0x000922                  C:\Users\rbair\AppData\Local\Temp\ccMupnzh.000013b8.o:.L312
                  0x00092e                  C:\Users\rbair\AppData\Local\Temp\ccMupnzh.000013b8.o:.L313
                  0x00093a                  C:\Users\rbair\AppData\Local\Temp\ccMupnzh.000013b8.o:.L314
                  0x000946                  C:\Users\rbair\AppData\Local\Temp\ccMupnzh.000013b8.o:.L315
                  0x000952                  C:\Users\rbair\AppData\Local\Temp\ccMupnzh.000013b8.o:.L316
                  0x00095e                  C:\Users\rbair\AppData\Local\Temp\ccMupnzh.000013b8.o:.L317
                  0x00096a                  C:\Users\rbair\AppData\Local\Temp\ccMupnzh.000013b8.o:.L318
                  0x000976                  C:\Users\rbair\AppData\Local\Temp\ccMupnzh.000013b8.o:.L319
                  0x000982                  C:\Users\rbair\AppData\Local\Temp\ccMupnzh.000013b8.o:.L320
                  0x00098e                  C:\Users\rbair\AppData\Local\Temp\ccMupnzh.000013b8.o:.L321
                  0x00099a                  C:\Users\rbair\AppData\Local\Temp\ccMupnzh.000013b8.o:.L322
                  0x0009a6                  C:\Users\rbair\AppData\Local\Temp\ccMupnzh.000013b8.o:.L323
                  0x0009b2                  C:\Users\rbair\AppData\Local\Temp\ccMupnzh.000013b8.o:.L324
                  0x0009be                  C:\Users\rbair\AppData\Local\Temp\ccMupnzh.000013b8.o:.L325
                  0x0009ca                  C:\Users\rbair\AppData\Local\Temp\ccMupnzh.000013b8.o:.L326
                  0x0009d6                  C:\Users\rbair\AppData\Local\Temp\ccMupnzh.000013b8.o:.L327
                  0x0009e2                  C:\Users\rbair\AppData\Local\Temp\ccMupnzh.000013b8.o:.L328
                  0x0009ee                  C:\Users\rbair\AppData\Local\Temp\ccMupnzh.000013b8.o:.L329
                  0x0009fa                  C:\Users\rbair\AppData\Local\Temp\ccMupnzh.000013b8.o:.L330
                  0x000a06                  C:\Users\rbair\AppData\Local\Temp\ccMupnzh.000013b8.o:.L331
                  0x000a1a                  C:\Users\rbair\AppData\Local\Temp\ccMupnzh.000013b8.o:.L332
                  0x000a26                  C:\Users\rbair\AppData\Local\Temp\ccMupnzh.000013b8.o:.L333
                  0x000a32                  C:\Users\rbair\AppData\Local\Temp\ccMupnzh.000013b8.o:.L334
                  0x000a3e                  C:\Users\rbair\AppData\Local\Temp\ccMupnzh.000013b8.o:.L335
                  0x000a4a                  C:\Users\rbair\AppData\Local\Temp\ccMupnzh.000013b8.o:.L336
                  0x000a56                  C:\Users\rbair\AppData\Local\Temp\ccMupnzh.000013b8.o:.L337
                  0x000a6c                  C:\Users\rbair\AppData\Local\Temp\ccMupnzh.000013b8.o:.L340
                  0x000a7c                  C:\Users\rbair\AppData\Local\Temp\ccMupnzh.000013b8.o:.L341
                  0x000a90                  C:\Users\rbair\AppData\Local\Temp\ccMupnzh.000013b8.o:.L342
                  0x000a9c                  C:\Users\rbair\AppData\Local\Temp\ccMupnzh.000013b8.o:.L343
                  0x000aa8                  C:\Users\rbair\AppData\Local\Temp\ccMupnzh.000013b8.o:.L344
                  0x000ab4                  C:\Users\rbair\AppData\Local\Temp\ccMupnzh.000013b8.o:.L345
                  0x000ac8                  C:\Users\rbair\AppData\Local\Temp\ccMupnzh.000013b8.o:.L346
                  0x000ad4                  C:\Users\rbair\AppData\Local\Temp\ccMupnzh.000013b8.o:.L347
                  0x000ae8                  C:\Users\rbair\AppData\Local\Temp\ccMupnzh.000013b8.o:.L348
                  0x000af4                  C:\Users\rbair\AppData\Local\Temp\ccMupnzh.000013b8.o:.L349
                  0x000b00                  C:\Users\rbair\AppData\Local\Temp\ccMupnzh.000013b8.o:.L350
                  0x000b0c                  C:\Users\rbair\AppData\Local\Temp\ccMupnzh.000013b8.o:.L351
                  0x000b1e                  C:\Users\rbair\AppData\Local\Temp\ccMupnzh.000013b8.o:.L352
                  0x000b2a                  C:\Users\rbair\AppData\Local\Temp\ccMupnzh.000013b8.o:.L353
                  0x000b36                  C:\Users\rbair\AppData\Local\Temp\ccMupnzh.000013b8.o:.L354
                  0x000b42                  C:\Users\rbair\AppData\Local\Temp\ccMupnzh.000013b8.o:.L355
                  0x000b54                  C:\Users\rbair\AppData\Local\Temp\ccMupnzh.000013b8.o:.L356
                  0x000b60                  C:\Users\rbair\AppData\Local\Temp\ccMupnzh.000013b8.o:.L357
                  0x000b6c                  C:\Users\rbair\AppData\Local\Temp\ccMupnzh.000013b8.o:.L358
                  0x000b78                  C:\Users\rbair\AppData\Local\Temp\ccMupnzh.000013b8.o:.L359
                  0x000b8c                  C:\Users\rbair\AppData\Local\Temp\ccMupnzh.000013b8.o:.L360
                  0x000b98                  C:\Users\rbair\AppData\Local\Temp\ccMupnzh.000013b8.o:.L361
                  0x000ba4                  C:\Users\rbair\AppData\Local\Temp\ccMupnzh.000013b8.o:.L362
                  0x000bb0                  C:\Users\rbair\AppData\Local\Temp\ccMupnzh.000013b8.o:.L363
                  0x000bc6                  C:\Users\rbair\AppData\Local\Temp\ccMupnzh.000013b8.o:.L364
                  0x000bd2                  C:\Users\rbair\AppData\Local\Temp\ccMupnzh.000013b8.o:.L365
                  0x000bde                  C:\Users\rbair\AppData\Local\Temp\ccMupnzh.000013b8.o:.L366
                  0x000bea                  C:\Users\rbair\AppData\Local\Temp\ccMupnzh.000013b8.o:.L367
                  0x000bfe                  C:\Users\rbair\AppData\Local\Temp\ccMupnzh.000013b8.o:.L368
                  0x000c0a                  C:\Users\rbair\AppData\Local\Temp\ccMupnzh.000013b8.o:.L369
                  0x000c16                  C:\Users\rbair\AppData\Local\Temp\ccMupnzh.000013b8.o:.L370
                  0x000c22                  C:\Users\rbair\AppData\Local\Temp\ccMupnzh.000013b8.o:.L371
                  0x000c36                  C:\Users\rbair\AppData\Local\Temp\ccMupnzh.000013b8.o:.L372
                  0x000c42                  C:\Users\rbair\AppData\Local\Temp\ccMupnzh.000013b8.o:.L373
                  0x000c4e                  C:\Users\rbair\AppData\Local\Temp\ccMupnzh.000013b8.o:.L374
                  0x000c5a                  C:\Users\rbair\AppData\Local\Temp\ccMupnzh.000013b8.o:.L375
                  0x000c6e                  C:\Users\rbair\AppData\Local\Temp\ccMupnzh.000013b8.o:.L376
                  0x000c7a                  C:\Users\rbair\AppData\Local\Temp\ccMupnzh.000013b8.o:.L377
                  0x000c86                  C:\Users\rbair\AppData\Local\Temp\ccMupnzh.000013b8.o:.L378
                  0x000c92                  C:\Users\rbair\AppData\Local\Temp\ccMupnzh.000013b8.o:.L379
                  0x000c9e                  C:\Users\rbair\AppData\Local\Temp\ccMupnzh.000013b8.o:.L380
                  0x000caa                  C:\Users\rbair\AppData\Local\Temp\ccMupnzh.000013b8.o:.L381
                  0x000cb6                  C:\Users\rbair\AppData\Local\Temp\ccMupnzh.000013b8.o:.L382
                  0x000cc2                  C:\Users\rbair\AppData\Local\Temp\ccMupnzh.000013b8.o:.L383
                  0x000cce                  C:\Users\rbair\AppData\Local\Temp\ccMupnzh.000013b8.o:.L384
                  0x000cd8                  C:\Users\rbair\AppData\Local\Temp\ccMupnzh.000013b8.o:.L385
                  0x000ce4                  C:\Users\rbair\AppData\Local\Temp\ccMupnzh.000013b8.o:.L386
                  0x000cf0                  C:\Users\rbair\AppData\Local\Temp\ccMupnzh.000013b8.o:.L387
                  0x000cfc                  C:\Users\rbair\AppData\Local\Temp\ccMupnzh.000013b8.o:.L388
                  0x000d08                  C:\Users\rbair\AppData\Local\Temp\ccMupnzh.000013b8.o:.L389
                  0x000d14                  C:\Users\rbair\AppData\Local\Temp\ccMupnzh.000013b8.o:.L390
                  0x000d1e                  C:\Users\rbair\AppData\Local\Temp\ccMupnzh.000013b8.o:.L391
                  0x000d32                  C:\Users\rbair\AppData\Local\Temp\ccMupnzh.000013b8.o:.L392
                  0x000d3e                  C:\Users\rbair\AppData\Local\Temp\ccMupnzh.000013b8.o:.L393
                  0x000d4a                  C:\Users\rbair\AppData\Local\Temp\ccMupnzh.000013b8.o:.L394
                  0x000d56                  C:\Users\rbair\AppData\Local\Temp\ccMupnzh.000013b8.o:.L395
                  0x000d62                  C:\Users\rbair\AppData\Local\Temp\ccMupnzh.000013b8.o:.L396
                  0x000d6e                  C:\Users\rbair\AppData\Local\Temp\ccMupnzh.000013b8.o:.L397
                  0x000d82                  C:\Users\rbair\AppData\Local\Temp\ccMupnzh.000013b8.o:.L398
                  0x000d8e                  C:\Users\rbair\AppData\Local\Temp\ccMupnzh.000013b8.o:.L399
                  0x000d9a                  C:\Users\rbair\AppData\Local\Temp\ccMupnzh.000013b8.o:.L400
                  0x000da6                  C:\Users\rbair\AppData\Local\Temp\ccMupnzh.000013b8.o:.L401
                  0x000dbc                  C:\Users\rbair\AppData\Local\Temp\ccMupnzh.000013b8.o:.L402
                  0x000dc8                  C:\Users\rbair\AppData\Local\Temp\ccMupnzh.000013b8.o:.L403
                  0x000dd4                  C:\Users\rbair\AppData\Local\Temp\ccMupnzh.000013b8.o:.L404
                  0x000de0                  C:\Users\rbair\AppData\Local\Temp\ccMupnzh.000013b8.o:.L405
                  0x000df4                  C:\Users\rbair\AppData\Local\Temp\ccMupnzh.000013b8.o:.L406
                  0x000e00                  C:\Users\rbair\AppData\Local\Temp\ccMupnzh.000013b8.o:.L407
                  0x000e14                  C:\Users\rbair\AppData\Local\Temp\ccMupnzh.000013b8.o:.L408
                  0x000e20                  C:\Users\rbair\AppData\Local\Temp\ccMupnzh.000013b8.o:.L409
                  0x000e34                  C:\Users\rbair\AppData\Local\Temp\ccMupnzh.000013b8.o:.L410
                  0x000e40                  C:\Users\rbair\AppData\Local\Temp\ccMupnzh.000013b8.o:.L411
                  0x000e4c                  C:\Users\rbair\AppData\Local\Temp\ccMupnzh.000013b8.o:.L412
                  0x000e58                  C:\Users\rbair\AppData\Local\Temp\ccMupnzh.000013b8.o:.L413
                  0x000e6c                  C:\Users\rbair\AppData\Local\Temp\ccMupnzh.000013b8.o:.L414
                  0x000e78                  C:\Users\rbair\AppData\Local\Temp\ccMupnzh.000013b8.o:.L415
                  0x000e84                  C:\Users\rbair\AppData\Local\Temp\ccMupnzh.000013b8.o:.L416
                  0x000e90                  C:\Users\rbair\AppData\Local\Temp\ccMupnzh.000013b8.o:.L417
                  0x000ea4                  C:\Users\rbair\AppData\Local\Temp\ccMupnzh.000013b8.o:.L418
                  0x000eb0                  C:\Users\rbair\AppData\Local\Temp\ccMupnzh.000013b8.o:.L419
                  0x000ebc                  C:\Users\rbair\AppData\Local\Temp\ccMupnzh.000013b8.o:.L420
                  0x000ec8                  C:\Users\rbair\AppData\Local\Temp\ccMupnzh.000013b8.o:.L421
                  0x000ede                  C:\Users\rbair\AppData\Local\Temp\ccMupnzh.000013b8.o:.L422
                  0x000eea                  C:\Users\rbair\AppData\Local\Temp\ccMupnzh.000013b8.o:.L423
                  0x000ef6                  C:\Users\rbair\AppData\Local\Temp\ccMupnzh.000013b8.o:.L424
                  0x000f02                  C:\Users\rbair\AppData\Local\Temp\ccMupnzh.000013b8.o:.L425
                  0x000f16                  C:\Users\rbair\AppData\Local\Temp\ccMupnzh.000013b8.o:.L426
                  0x000f22                  C:\Users\rbair\AppData\Local\Temp\ccMupnzh.000013b8.o:.L427
                  0x000f2e                  C:\Users\rbair\AppData\Local\Temp\ccMupnzh.000013b8.o:.L428
                  0x000f3a                  C:\Users\rbair\AppData\Local\Temp\ccMupnzh.000013b8.o:.L429
                  0x000f4e                  C:\Users\rbair\AppData\Local\Temp\ccMupnzh.000013b8.o:.L430
                  0x000f5a                  C:\Users\rbair\AppData\Local\Temp\ccMupnzh.000013b8.o:.L431
                  0x000f66                  C:\Users\rbair\AppData\Local\Temp\ccMupnzh.000013b8.o:.L432
                  0x000f72                  C:\Users\rbair\AppData\Local\Temp\ccMupnzh.000013b8.o:.L433
                  0x000f86                  C:\Users\rbair\AppData\Local\Temp\ccMupnzh.000013b8.o:.L434
                  0x000f92                  C:\Users\rbair\AppData\Local\Temp\ccMupnzh.000013b8.o:.L435
                  0x000f9e                  C:\Users\rbair\AppData\Local\Temp\ccMupnzh.000013b8.o:.L436
                  0x000faa                  C:\Users\rbair\AppData\Local\Temp\ccMupnzh.000013b8.o:.L437
                  0x000fb6                  C:\Users\rbair\AppData\Local\Temp\ccMupnzh.000013b8.o:.L438
                  0x000fc2                  C:\Users\rbair\AppData\Local\Temp\ccMupnzh.000013b8.o:.L439
                  0x000fce                  C:\Users\rbair\AppData\Local\Temp\ccMupnzh.000013b8.o:.L440
                  0x000fda                  C:\Users\rbair\AppData\Local\Temp\ccMupnzh.000013b8.o:.L441
                  0x000fe6                  C:\Users\rbair\AppData\Local\Temp\ccMupnzh.000013b8.o:.L442
                  0x000ff0                  C:\Users\rbair\AppData\Local\Temp\ccMupnzh.000013b8.o:.L443
                  0x000ffc                  C:\Users\rbair\AppData\Local\Temp\ccMupnzh.000013b8.o:.L444
                  0x001008                  C:\Users\rbair\AppData\Local\Temp\ccMupnzh.000013b8.o:.L445
                  0x001014                  C:\Users\rbair\AppData\Local\Temp\ccMupnzh.000013b8.o:.L446
                  0x001024                  C:\Users\rbair\AppData\Local\Temp\ccMupnzh.000013b8.o:.L447
                  0x001048                  C:\Users\rbair\AppData\Local\Temp\ccMupnzh.000013b8.o:.L452
                  0x001054                  C:\Users\rbair\AppData\Local\Temp\ccMupnzh.000013b8.o:.L453
                  0x001060                  C:\Users\rbair\AppData\Local\Temp\ccMupnzh.000013b8.o:.L454
                  0x00106c                  C:\Users\rbair\AppData\Local\Temp\ccMupnzh.000013b8.o:.L455
                  0x001078                  C:\Users\rbair\AppData\Local\Temp\ccMupnzh.000013b8.o:.L456
                  0x001084                  C:\Users\rbair\AppData\Local\Temp\ccMupnzh.000013b8.o:.L457
                  0x001090                  C:\Users\rbair\AppData\Local\Temp\ccMupnzh.000013b8.o:.L458
                  0x00109c                  C:\Users\rbair\AppData\Local\Temp\ccMupnzh.000013b8.o:.L459
                  0x0010a8                  C:\Users\rbair\AppData\Local\Temp\ccMupnzh.000013b8.o:.L460
                  0x0010b4                  C:\Users\rbair\AppData\Local\Temp\ccMupnzh.000013b8.o:.L461
                  0x0010be                  C:\Users\rbair\AppData\Local\Temp\ccMupnzh.000013b8.o:.L462
                  0x0010ca                  C:\Users\rbair\AppData\Local\Temp\ccMupnzh.000013b8.o:.L463
                  0x0010d4                  C:\Users\rbair\AppData\Local\Temp\ccMupnzh.000013b8.o:.L464
                  0x0010e0                  C:\Users\rbair\AppData\Local\Temp\ccMupnzh.000013b8.o:.L465
                  0x0010ec                  C:\Users\rbair\AppData\Local\Temp\ccMupnzh.000013b8.o:.L466
                  0x001102                  C:\Users\rbair\AppData\Local\Temp\ccMupnzh.000013b8.o:.L467
                  0x00110e                  C:\Users\rbair\AppData\Local\Temp\ccMupnzh.000013b8.o:.L468
                  0x00111a                  C:\Users\rbair\AppData\Local\Temp\ccMupnzh.000013b8.o:.L469
                  0x001126                  C:\Users\rbair\AppData\Local\Temp\ccMupnzh.000013b8.o:.L470
                  0x001132                  C:\Users\rbair\AppData\Local\Temp\ccMupnzh.000013b8.o:.L471
                  0x00113e                  C:\Users\rbair\AppData\Local\Temp\ccMupnzh.000013b8.o:.L472
                  0x00114a                  C:\Users\rbair\AppData\Local\Temp\ccMupnzh.000013b8.o:.L473
                  0x001156                  C:\Users\rbair\AppData\Local\Temp\ccMupnzh.000013b8.o:.L474
                  0x001160                  C:\Users\rbair\AppData\Local\Temp\ccMupnzh.000013b8.o:.L475
                  0x001170                  C:\Users\rbair\AppData\Local\Temp\ccMupnzh.000013b8.o:.L476
                  0x00117c                  C:\Users\rbair\AppData\Local\Temp\ccMupnzh.000013b8.o:.L477
                  0x001188                  C:\Users\rbair\AppData\Local\Temp\ccMupnzh.000013b8.o:.L478
                  0x001194                  C:\Users\rbair\AppData\Local\Temp\ccMupnzh.000013b8.o:.L479
                  0x0011a0                  C:\Users\rbair\AppData\Local\Temp\ccMupnzh.000013b8.o:.L480
                  0x0011aa                  C:\Users\rbair\AppData\Local\Temp\ccMupnzh.000013b8.o:.L481
                  0x0011ba                  C:\Users\rbair\AppData\Local\Temp\ccMupnzh.000013b8.o:.L482
                  0x0011c6                  C:\Users\rbair\AppData\Local\Temp\ccMupnzh.000013b8.o:.L483
                  0x0011d2                  C:\Users\rbair\AppData\Local\Temp\ccMupnzh.000013b8.o:.L484
                  0x0011de                  C:\Users\rbair\AppData\Local\Temp\ccMupnzh.000013b8.o:.L485
                  0x0011e8                  C:\Users\rbair\AppData\Local\Temp\ccMupnzh.000013b8.o:.L486
                  0x0011f8                  C:\Users\rbair\AppData\Local\Temp\ccMupnzh.000013b8.o:.L487
                  0x001204                  C:\Users\rbair\AppData\Local\Temp\ccMupnzh.000013b8.o:.L488
                  0x001210                  C:\Users\rbair\AppData\Local\Temp\ccMupnzh.000013b8.o:.L489
                  0x00121c                  C:\Users\rbair\AppData\Local\Temp\ccMupnzh.000013b8.o:.L490
                  0x001226                  C:\Users\rbair\AppData\Local\Temp\ccMupnzh.000013b8.o:.L491
                  0x001236                  C:\Users\rbair\AppData\Local\Temp\ccMupnzh.000013b8.o:.L492
                  0x001260                  C:\Users\rbair\AppData\Local\Temp\ccMupnzh.000013b8.o:.L499
                  0x001270                  C:\Users\rbair\AppData\Local\Temp\ccMupnzh.000013b8.o:.L501
                  0x001282                  C:\Users\rbair\AppData\Local\Temp\ccMupnzh.000013b8.o:.L504
                  0x001294                  C:\Users\rbair\AppData\Local\Temp\ccMupnzh.000013b8.o:.L507
                  0x0012a6                  C:\Users\rbair\AppData\Local\Temp\ccMupnzh.000013b8.o:.L510
                  0x0012b8                  C:\Users\rbair\AppData\Local\Temp\ccMupnzh.000013b8.o:.L513
                  0x0012ca                  C:\Users\rbair\AppData\Local\Temp\ccMupnzh.000013b8.o:.L516
                  0x0012dc                  C:\Users\rbair\AppData\Local\Temp\ccMupnzh.000013b8.o:.L518
                  0x0012e8                  C:\Users\rbair\AppData\Local\Temp\ccMupnzh.000013b8.o:.L534
                  0x0012f2                  C:\Users\rbair\AppData\Local\Temp\ccMupnzh.000013b8.o:.L535
                  0x0012fc                  C:\Users\rbair\AppData\Local\Temp\ccMupnzh.000013b8.o:.L536
                  0x001306                  C:\Users\rbair\AppData\Local\Temp\ccMupnzh.000013b8.o:.L537
                  0x001310                  C:\Users\rbair\AppData\Local\Temp\ccMupnzh.000013b8.o:.L538
                  0x00131a                  C:\Users\rbair\AppData\Local\Temp\ccMupnzh.000013b8.o:.L539
                  0x001324                  C:\Users\rbair\AppData\Local\Temp\ccMupnzh.000013b8.o:.L540
                  0x00132e                  C:\Users\rbair\AppData\Local\Temp\ccMupnzh.000013b8.o:.L541
                  0x001338                  C:\Users\rbair\AppData\Local\Temp\ccMupnzh.000013b8.o:.L542
                  0x001342                  C:\Users\rbair\AppData\Local\Temp\ccMupnzh.000013b8.o:.L543
                  0x00134c                  C:\Users\rbair\AppData\Local\Temp\ccMupnzh.000013b8.o:.L544
                  0x001362                  C:\Users\rbair\AppData\Local\Temp\ccMupnzh.000013b8.o:.L547
                  0x00136e                  C:\Users\rbair\AppData\Local\Temp\ccMupnzh.000013b8.o:.L548
                  0x001384                  C:\Users\rbair\AppData\Local\Temp\ccMupnzh.000013b8.o:.L551
                  0x001390                  C:\Users\rbair\AppData\Local\Temp\ccMupnzh.000013b8.o:.L552
                  0x0013a6                  C:\Users\rbair\AppData\Local\Temp\ccMupnzh.000013b8.o:.L555
                  0x0013b2                  C:\Users\rbair\AppData\Local\Temp\ccMupnzh.000013b8.o:.L526
                  0x0013be                  C:\Users\rbair\AppData\Local\Temp\ccMupnzh.000013b8.o:.L527
                  0x0013ca                  C:\Users\rbair\AppData\Local\Temp\ccMupnzh.000013b8.o:.L528
                  0x0013d4                  C:\Users\rbair\AppData\Local\Temp\ccMupnzh.000013b8.o:.L529
                  0x0013de                  C:\Users\rbair\AppData\Local\Temp\ccMupnzh.000013b8.o:.L530
                  0x0013e8                  C:\Users\rbair\AppData\Local\Temp\ccMupnzh.000013b8.o:.L531
                  0x0013f2                  C:\Users\rbair\AppData\Local\Temp\ccMupnzh.000013b8.o:.L532
                  0x0013fc                  C:\Users\rbair\AppData\Local\Temp\ccMupnzh.000013b8.o:.L533
                  0x001406                  C:\Users\rbair\AppData\Local\Temp\ccMupnzh.000013b8.o:.L522
                  0x001410                  C:\Users\rbair\AppData\Local\Temp\ccMupnzh.000013b8.o:.L523
                  0x00141c                  C:\Users\rbair\AppData\Local\Temp\ccMupnzh.000013b8.o:.L524
                  0x001428                  C:\Users\rbair\AppData\Local\Temp\ccMupnzh.000013b8.o:.L525
                  0x001434                  C:\Users\rbair\AppData\Local\Temp\ccMupnzh.000013b8.o:.L519
                  0x001440                  C:\Users\rbair\AppData\Local\Temp\ccMupnzh.000013b8.o:.L520
                  0x0015c8                  __DefaultInterrupt
                  0x0015ce                  _memcmp
                  0x0015ea                  _updateTransport
                  0x001862                  _frameInit
                  0x0018fe                  _frameInitTitle
                  0x001936                  _CLC1_Initialize
                  0x001950                  _CLC1_PositiveEdge_Tasks
                  0x00195c                  _CLC1_NegativeEdge_Tasks
                  0x001968                  _CLC1_OutputStatusGet
                  0x00196e                  _INTERRUPT_Initialize
                  0x001974                  _CLOCK_Initialize
                  0x0019be                  _PIN_MANAGER_Initialize
                  0x001a48                  _SYSTEM_Initialize
                  0x001a84                  _PIN_MANAGER_enableInterrupt_On_Change
                  0x001a8a                  _RESET_GetCause
                  0x001aba                  _RESET_CauseClearAll
                  0x001abe                  _SPI1_Initialize
                  0x001ad6                  _SPI1_HighSpeed
                  0x001adc                  _SPI1_Exchange
                  0x001aee                  _SPI1_ExchangeBuffer
                  0x001b5c                  _SPI1_Exchange8bit
                  0x001b6c                  _SPI1_Exchange8bitBuffer
                  0x001b6e                  _SPI1_StatusGet
                  0x001b72                  _flash_led
                  0x001bce                  _serialLED
                  0x001c06                  _copyFromFlash
                  0x001c46                  _setupTitle
                  0x001cc2                  _resetNewCode
                  0x001ce6                  _waitEndFrame
                  0x001cf6                  _coreInit
                  0x001d34                  _spiRec
                  0x001d48                  _chipSelectHigh
                  0x001d4c                  _chipSelectLow
                  0x001d50                  _sd_error
                  0x001d5a                  _cardCommand
                  0x001e0c                  _startBlockReady
                  0x001e1a                  _startReadBlock
                  0x001e3e                  _startReadBlockMulti
                  0x001e62                  _endReadBlockMulti
                  0x001e76                  _endReadBlock
                  0x001eaa                  _cardAcmd
                  0x001ec4                  _sdcard_init
                  0x001ff4                  _disk_read_block1
                  0x00200a                  _disk_read_block2
                  0x00201c                  _disk_initialize
                  0x00203a                  _ld_word
                  0x002044                  _ld_dword
                  0x002082                  _get_fat
                  0x0020e2                  _pf_mount
                  0x002310                  _pf_seek_block
                  0x002438                  _pf_open_first
                  0x0025a2                  _setupDisk
                  0x0025d8                  _pf_read_block
                  0x0025e8                  _prepareNextFrame
                  0x00263e                  _runFrameLoop
                  0x0026b2                  _runTitle
                  0x00273c                  _handleFirmwareUpdate
                  0x0028ea                  _updateInit
                  0x00291a                  _main
                  0x002966                  _updateVolume
                  0x0029b8                  _updateColor
                  0x002ba6                  _updateBuffer
                  0x002bb6                  ___delay32
                  0x002bd2                  _TitleGraph1
                  0x002e52                  _TitleGraph2
                  0x0030d2                  _TitleColor1
                  0x003352                  _TitleColor2
                  0x0035d2                  _TitleBackColor1
                  0x003652                  _TitleBackColor2
                  0x0036d4                  _FLASH_Unlock
                  0x0036de                  _FLASH_Lock
                  0x0036ec                  _FLASH_SendNvmKey
                  0x003718                  _FLASH_ReadWord24
                  0x003726                  _FLASH_ReadWord16
                  0x003732                  _FLASH_ErasePage
                  0x00374e                  _FLASH_WriteDoubleWord24
                  0x003782                  _FLASH_WriteDoubleWord16
                  0x0037b8                  _FLASH_WriteRow24
                  0x0037da                  _FLASH_WriteRow16
                  0x003812                  _FLASH_GetErasePageOffset
                  0x003818                  _FLASH_GetErasePageAddress
                  0x00382e                  _brightLabelEven
                  0x003874                  _brightLabelOdd
                  0x0038ba                  _volumeLabelEven
                  0x003900                  _volumeLabelOdd
                  0x003946                  _levelBarsEvenData
                  0x003afe                  _levelBarsOddData
                  0x003cb6                  _scale0
                  0x003cc6                  _scale1
                  0x003cd6                  _scale2
                  0x003ce6                  _scale3
                  0x003cf6                  _scale4
                  0x003d06                  _scale5
                  0x003d16                  _scale6
                  0x003d26                  _scale7
                  0x003d36                  _scale8
                  0x003d46                  _scale9
                  0x003d56                  _scale10
                  0x003d66                  _scaleList
                  0x003d7c                  _shiftBright
                  0x004800                  _main2
                  0x00af00                  __FSEC.sec

External Symbols in Program Memory (by name):

                  0x000712                  C:\Users\rbair\AppData\Local\Temp\ccMupnzh.000013b8.o:.L268
                  0x000722                  C:\Users\rbair\AppData\Local\Temp\ccMupnzh.000013b8.o:.L269
                  0x00072e                  C:\Users\rbair\AppData\Local\Temp\ccMupnzh.000013b8.o:.L270
                  0x00073a                  C:\Users\rbair\AppData\Local\Temp\ccMupnzh.000013b8.o:.L271
                  0x000746                  C:\Users\rbair\AppData\Local\Temp\ccMupnzh.000013b8.o:.L272
                  0x000752                  C:\Users\rbair\AppData\Local\Temp\ccMupnzh.000013b8.o:.L273
                  0x00075e                  C:\Users\rbair\AppData\Local\Temp\ccMupnzh.000013b8.o:.L274
                  0x00076a                  C:\Users\rbair\AppData\Local\Temp\ccMupnzh.000013b8.o:.L275
                  0x000774                  C:\Users\rbair\AppData\Local\Temp\ccMupnzh.000013b8.o:.L276
                  0x000780                  C:\Users\rbair\AppData\Local\Temp\ccMupnzh.000013b8.o:.L277
                  0x00078a                  C:\Users\rbair\AppData\Local\Temp\ccMupnzh.000013b8.o:.L278
                  0x000796                  C:\Users\rbair\AppData\Local\Temp\ccMupnzh.000013b8.o:.L279
                  0x0007a2                  C:\Users\rbair\AppData\Local\Temp\ccMupnzh.000013b8.o:.L280
                  0x0007ae                  C:\Users\rbair\AppData\Local\Temp\ccMupnzh.000013b8.o:.L281
                  0x0007ba                  C:\Users\rbair\AppData\Local\Temp\ccMupnzh.000013b8.o:.L282
                  0x0007c6                  C:\Users\rbair\AppData\Local\Temp\ccMupnzh.000013b8.o:.L283
                  0x0007d2                  C:\Users\rbair\AppData\Local\Temp\ccMupnzh.000013b8.o:.L284
                  0x0007de                  C:\Users\rbair\AppData\Local\Temp\ccMupnzh.000013b8.o:.L285
                  0x0007ea                  C:\Users\rbair\AppData\Local\Temp\ccMupnzh.000013b8.o:.L286
                  0x0007f6                  C:\Users\rbair\AppData\Local\Temp\ccMupnzh.000013b8.o:.L287
                  0x000802                  C:\Users\rbair\AppData\Local\Temp\ccMupnzh.000013b8.o:.L288
                  0x00080e                  C:\Users\rbair\AppData\Local\Temp\ccMupnzh.000013b8.o:.L289
                  0x00081a                  C:\Users\rbair\AppData\Local\Temp\ccMupnzh.000013b8.o:.L290
                  0x000826                  C:\Users\rbair\AppData\Local\Temp\ccMupnzh.000013b8.o:.L291
                  0x000832                  C:\Users\rbair\AppData\Local\Temp\ccMupnzh.000013b8.o:.L292
                  0x00083e                  C:\Users\rbair\AppData\Local\Temp\ccMupnzh.000013b8.o:.L293
                  0x00084a                  C:\Users\rbair\AppData\Local\Temp\ccMupnzh.000013b8.o:.L294
                  0x000856                  C:\Users\rbair\AppData\Local\Temp\ccMupnzh.000013b8.o:.L295
                  0x000862                  C:\Users\rbair\AppData\Local\Temp\ccMupnzh.000013b8.o:.L296
                  0x00086e                  C:\Users\rbair\AppData\Local\Temp\ccMupnzh.000013b8.o:.L297
                  0x00087a                  C:\Users\rbair\AppData\Local\Temp\ccMupnzh.000013b8.o:.L298
                  0x000886                  C:\Users\rbair\AppData\Local\Temp\ccMupnzh.000013b8.o:.L299
                  0x000892                  C:\Users\rbair\AppData\Local\Temp\ccMupnzh.000013b8.o:.L300
                  0x00089e                  C:\Users\rbair\AppData\Local\Temp\ccMupnzh.000013b8.o:.L301
                  0x0008aa                  C:\Users\rbair\AppData\Local\Temp\ccMupnzh.000013b8.o:.L302
                  0x0008b6                  C:\Users\rbair\AppData\Local\Temp\ccMupnzh.000013b8.o:.L303
                  0x0008c2                  C:\Users\rbair\AppData\Local\Temp\ccMupnzh.000013b8.o:.L304
                  0x0008ce                  C:\Users\rbair\AppData\Local\Temp\ccMupnzh.000013b8.o:.L305
                  0x0008da                  C:\Users\rbair\AppData\Local\Temp\ccMupnzh.000013b8.o:.L306
                  0x0008e6                  C:\Users\rbair\AppData\Local\Temp\ccMupnzh.000013b8.o:.L307
                  0x0008f2                  C:\Users\rbair\AppData\Local\Temp\ccMupnzh.000013b8.o:.L308
                  0x0008fe                  C:\Users\rbair\AppData\Local\Temp\ccMupnzh.000013b8.o:.L309
                  0x00090a                  C:\Users\rbair\AppData\Local\Temp\ccMupnzh.000013b8.o:.L310
                  0x000916                  C:\Users\rbair\AppData\Local\Temp\ccMupnzh.000013b8.o:.L311
                  0x000922                  C:\Users\rbair\AppData\Local\Temp\ccMupnzh.000013b8.o:.L312
                  0x00092e                  C:\Users\rbair\AppData\Local\Temp\ccMupnzh.000013b8.o:.L313
                  0x00093a                  C:\Users\rbair\AppData\Local\Temp\ccMupnzh.000013b8.o:.L314
                  0x000946                  C:\Users\rbair\AppData\Local\Temp\ccMupnzh.000013b8.o:.L315
                  0x000952                  C:\Users\rbair\AppData\Local\Temp\ccMupnzh.000013b8.o:.L316
                  0x00095e                  C:\Users\rbair\AppData\Local\Temp\ccMupnzh.000013b8.o:.L317
                  0x00096a                  C:\Users\rbair\AppData\Local\Temp\ccMupnzh.000013b8.o:.L318
                  0x000976                  C:\Users\rbair\AppData\Local\Temp\ccMupnzh.000013b8.o:.L319
                  0x000982                  C:\Users\rbair\AppData\Local\Temp\ccMupnzh.000013b8.o:.L320
                  0x00098e                  C:\Users\rbair\AppData\Local\Temp\ccMupnzh.000013b8.o:.L321
                  0x00099a                  C:\Users\rbair\AppData\Local\Temp\ccMupnzh.000013b8.o:.L322
                  0x0009a6                  C:\Users\rbair\AppData\Local\Temp\ccMupnzh.000013b8.o:.L323
                  0x0009b2                  C:\Users\rbair\AppData\Local\Temp\ccMupnzh.000013b8.o:.L324
                  0x0009be                  C:\Users\rbair\AppData\Local\Temp\ccMupnzh.000013b8.o:.L325
                  0x0009ca                  C:\Users\rbair\AppData\Local\Temp\ccMupnzh.000013b8.o:.L326
                  0x0009d6                  C:\Users\rbair\AppData\Local\Temp\ccMupnzh.000013b8.o:.L327
                  0x0009e2                  C:\Users\rbair\AppData\Local\Temp\ccMupnzh.000013b8.o:.L328
                  0x0009ee                  C:\Users\rbair\AppData\Local\Temp\ccMupnzh.000013b8.o:.L329
                  0x0009fa                  C:\Users\rbair\AppData\Local\Temp\ccMupnzh.000013b8.o:.L330
                  0x000a06                  C:\Users\rbair\AppData\Local\Temp\ccMupnzh.000013b8.o:.L331
                  0x000a1a                  C:\Users\rbair\AppData\Local\Temp\ccMupnzh.000013b8.o:.L332
                  0x000a26                  C:\Users\rbair\AppData\Local\Temp\ccMupnzh.000013b8.o:.L333
                  0x000a32                  C:\Users\rbair\AppData\Local\Temp\ccMupnzh.000013b8.o:.L334
                  0x000a3e                  C:\Users\rbair\AppData\Local\Temp\ccMupnzh.000013b8.o:.L335
                  0x000a4a                  C:\Users\rbair\AppData\Local\Temp\ccMupnzh.000013b8.o:.L336
                  0x000a56                  C:\Users\rbair\AppData\Local\Temp\ccMupnzh.000013b8.o:.L337
                  0x000a6c                  C:\Users\rbair\AppData\Local\Temp\ccMupnzh.000013b8.o:.L340
                  0x000a7c                  C:\Users\rbair\AppData\Local\Temp\ccMupnzh.000013b8.o:.L341
                  0x000a90                  C:\Users\rbair\AppData\Local\Temp\ccMupnzh.000013b8.o:.L342
                  0x000a9c                  C:\Users\rbair\AppData\Local\Temp\ccMupnzh.000013b8.o:.L343
                  0x000aa8                  C:\Users\rbair\AppData\Local\Temp\ccMupnzh.000013b8.o:.L344
                  0x000ab4                  C:\Users\rbair\AppData\Local\Temp\ccMupnzh.000013b8.o:.L345
                  0x000ac8                  C:\Users\rbair\AppData\Local\Temp\ccMupnzh.000013b8.o:.L346
                  0x000ad4                  C:\Users\rbair\AppData\Local\Temp\ccMupnzh.000013b8.o:.L347
                  0x000ae8                  C:\Users\rbair\AppData\Local\Temp\ccMupnzh.000013b8.o:.L348
                  0x000af4                  C:\Users\rbair\AppData\Local\Temp\ccMupnzh.000013b8.o:.L349
                  0x000b00                  C:\Users\rbair\AppData\Local\Temp\ccMupnzh.000013b8.o:.L350
                  0x000b0c                  C:\Users\rbair\AppData\Local\Temp\ccMupnzh.000013b8.o:.L351
                  0x000b1e                  C:\Users\rbair\AppData\Local\Temp\ccMupnzh.000013b8.o:.L352
                  0x000b2a                  C:\Users\rbair\AppData\Local\Temp\ccMupnzh.000013b8.o:.L353
                  0x000b36                  C:\Users\rbair\AppData\Local\Temp\ccMupnzh.000013b8.o:.L354
                  0x000b42                  C:\Users\rbair\AppData\Local\Temp\ccMupnzh.000013b8.o:.L355
                  0x000b54                  C:\Users\rbair\AppData\Local\Temp\ccMupnzh.000013b8.o:.L356
                  0x000b60                  C:\Users\rbair\AppData\Local\Temp\ccMupnzh.000013b8.o:.L357
                  0x000b6c                  C:\Users\rbair\AppData\Local\Temp\ccMupnzh.000013b8.o:.L358
                  0x000b78                  C:\Users\rbair\AppData\Local\Temp\ccMupnzh.000013b8.o:.L359
                  0x000b8c                  C:\Users\rbair\AppData\Local\Temp\ccMupnzh.000013b8.o:.L360
                  0x000b98                  C:\Users\rbair\AppData\Local\Temp\ccMupnzh.000013b8.o:.L361
                  0x000ba4                  C:\Users\rbair\AppData\Local\Temp\ccMupnzh.000013b8.o:.L362
                  0x000bb0                  C:\Users\rbair\AppData\Local\Temp\ccMupnzh.000013b8.o:.L363
                  0x000bc6                  C:\Users\rbair\AppData\Local\Temp\ccMupnzh.000013b8.o:.L364
                  0x000bd2                  C:\Users\rbair\AppData\Local\Temp\ccMupnzh.000013b8.o:.L365
                  0x000bde                  C:\Users\rbair\AppData\Local\Temp\ccMupnzh.000013b8.o:.L366
                  0x000bea                  C:\Users\rbair\AppData\Local\Temp\ccMupnzh.000013b8.o:.L367
                  0x000bfe                  C:\Users\rbair\AppData\Local\Temp\ccMupnzh.000013b8.o:.L368
                  0x000c0a                  C:\Users\rbair\AppData\Local\Temp\ccMupnzh.000013b8.o:.L369
                  0x000c16                  C:\Users\rbair\AppData\Local\Temp\ccMupnzh.000013b8.o:.L370
                  0x000c22                  C:\Users\rbair\AppData\Local\Temp\ccMupnzh.000013b8.o:.L371
                  0x000c36                  C:\Users\rbair\AppData\Local\Temp\ccMupnzh.000013b8.o:.L372
                  0x000c42                  C:\Users\rbair\AppData\Local\Temp\ccMupnzh.000013b8.o:.L373
                  0x000c4e                  C:\Users\rbair\AppData\Local\Temp\ccMupnzh.000013b8.o:.L374
                  0x000c5a                  C:\Users\rbair\AppData\Local\Temp\ccMupnzh.000013b8.o:.L375
                  0x000c6e                  C:\Users\rbair\AppData\Local\Temp\ccMupnzh.000013b8.o:.L376
                  0x000c7a                  C:\Users\rbair\AppData\Local\Temp\ccMupnzh.000013b8.o:.L377
                  0x000c86                  C:\Users\rbair\AppData\Local\Temp\ccMupnzh.000013b8.o:.L378
                  0x000c92                  C:\Users\rbair\AppData\Local\Temp\ccMupnzh.000013b8.o:.L379
                  0x000c9e                  C:\Users\rbair\AppData\Local\Temp\ccMupnzh.000013b8.o:.L380
                  0x000caa                  C:\Users\rbair\AppData\Local\Temp\ccMupnzh.000013b8.o:.L381
                  0x000cb6                  C:\Users\rbair\AppData\Local\Temp\ccMupnzh.000013b8.o:.L382
                  0x000cc2                  C:\Users\rbair\AppData\Local\Temp\ccMupnzh.000013b8.o:.L383
                  0x000cce                  C:\Users\rbair\AppData\Local\Temp\ccMupnzh.000013b8.o:.L384
                  0x000cd8                  C:\Users\rbair\AppData\Local\Temp\ccMupnzh.000013b8.o:.L385
                  0x000ce4                  C:\Users\rbair\AppData\Local\Temp\ccMupnzh.000013b8.o:.L386
                  0x000cf0                  C:\Users\rbair\AppData\Local\Temp\ccMupnzh.000013b8.o:.L387
                  0x000cfc                  C:\Users\rbair\AppData\Local\Temp\ccMupnzh.000013b8.o:.L388
                  0x000d08                  C:\Users\rbair\AppData\Local\Temp\ccMupnzh.000013b8.o:.L389
                  0x000d14                  C:\Users\rbair\AppData\Local\Temp\ccMupnzh.000013b8.o:.L390
                  0x000d1e                  C:\Users\rbair\AppData\Local\Temp\ccMupnzh.000013b8.o:.L391
                  0x000d32                  C:\Users\rbair\AppData\Local\Temp\ccMupnzh.000013b8.o:.L392
                  0x000d3e                  C:\Users\rbair\AppData\Local\Temp\ccMupnzh.000013b8.o:.L393
                  0x000d4a                  C:\Users\rbair\AppData\Local\Temp\ccMupnzh.000013b8.o:.L394
                  0x000d56                  C:\Users\rbair\AppData\Local\Temp\ccMupnzh.000013b8.o:.L395
                  0x000d62                  C:\Users\rbair\AppData\Local\Temp\ccMupnzh.000013b8.o:.L396
                  0x000d6e                  C:\Users\rbair\AppData\Local\Temp\ccMupnzh.000013b8.o:.L397
                  0x000d82                  C:\Users\rbair\AppData\Local\Temp\ccMupnzh.000013b8.o:.L398
                  0x000d8e                  C:\Users\rbair\AppData\Local\Temp\ccMupnzh.000013b8.o:.L399
                  0x000d9a                  C:\Users\rbair\AppData\Local\Temp\ccMupnzh.000013b8.o:.L400
                  0x000da6                  C:\Users\rbair\AppData\Local\Temp\ccMupnzh.000013b8.o:.L401
                  0x000dbc                  C:\Users\rbair\AppData\Local\Temp\ccMupnzh.000013b8.o:.L402
                  0x000dc8                  C:\Users\rbair\AppData\Local\Temp\ccMupnzh.000013b8.o:.L403
                  0x000dd4                  C:\Users\rbair\AppData\Local\Temp\ccMupnzh.000013b8.o:.L404
                  0x000de0                  C:\Users\rbair\AppData\Local\Temp\ccMupnzh.000013b8.o:.L405
                  0x000df4                  C:\Users\rbair\AppData\Local\Temp\ccMupnzh.000013b8.o:.L406
                  0x000e00                  C:\Users\rbair\AppData\Local\Temp\ccMupnzh.000013b8.o:.L407
                  0x000e14                  C:\Users\rbair\AppData\Local\Temp\ccMupnzh.000013b8.o:.L408
                  0x000e20                  C:\Users\rbair\AppData\Local\Temp\ccMupnzh.000013b8.o:.L409
                  0x000e34                  C:\Users\rbair\AppData\Local\Temp\ccMupnzh.000013b8.o:.L410
                  0x000e40                  C:\Users\rbair\AppData\Local\Temp\ccMupnzh.000013b8.o:.L411
                  0x000e4c                  C:\Users\rbair\AppData\Local\Temp\ccMupnzh.000013b8.o:.L412
                  0x000e58                  C:\Users\rbair\AppData\Local\Temp\ccMupnzh.000013b8.o:.L413
                  0x000e6c                  C:\Users\rbair\AppData\Local\Temp\ccMupnzh.000013b8.o:.L414
                  0x000e78                  C:\Users\rbair\AppData\Local\Temp\ccMupnzh.000013b8.o:.L415
                  0x000e84                  C:\Users\rbair\AppData\Local\Temp\ccMupnzh.000013b8.o:.L416
                  0x000e90                  C:\Users\rbair\AppData\Local\Temp\ccMupnzh.000013b8.o:.L417
                  0x000ea4                  C:\Users\rbair\AppData\Local\Temp\ccMupnzh.000013b8.o:.L418
                  0x000eb0                  C:\Users\rbair\AppData\Local\Temp\ccMupnzh.000013b8.o:.L419
                  0x000ebc                  C:\Users\rbair\AppData\Local\Temp\ccMupnzh.000013b8.o:.L420
                  0x000ec8                  C:\Users\rbair\AppData\Local\Temp\ccMupnzh.000013b8.o:.L421
                  0x000ede                  C:\Users\rbair\AppData\Local\Temp\ccMupnzh.000013b8.o:.L422
                  0x000eea                  C:\Users\rbair\AppData\Local\Temp\ccMupnzh.000013b8.o:.L423
                  0x000ef6                  C:\Users\rbair\AppData\Local\Temp\ccMupnzh.000013b8.o:.L424
                  0x000f02                  C:\Users\rbair\AppData\Local\Temp\ccMupnzh.000013b8.o:.L425
                  0x000f16                  C:\Users\rbair\AppData\Local\Temp\ccMupnzh.000013b8.o:.L426
                  0x000f22                  C:\Users\rbair\AppData\Local\Temp\ccMupnzh.000013b8.o:.L427
                  0x000f2e                  C:\Users\rbair\AppData\Local\Temp\ccMupnzh.000013b8.o:.L428
                  0x000f3a                  C:\Users\rbair\AppData\Local\Temp\ccMupnzh.000013b8.o:.L429
                  0x000f4e                  C:\Users\rbair\AppData\Local\Temp\ccMupnzh.000013b8.o:.L430
                  0x000f5a                  C:\Users\rbair\AppData\Local\Temp\ccMupnzh.000013b8.o:.L431
                  0x000f66                  C:\Users\rbair\AppData\Local\Temp\ccMupnzh.000013b8.o:.L432
                  0x000f72                  C:\Users\rbair\AppData\Local\Temp\ccMupnzh.000013b8.o:.L433
                  0x000f86                  C:\Users\rbair\AppData\Local\Temp\ccMupnzh.000013b8.o:.L434
                  0x000f92                  C:\Users\rbair\AppData\Local\Temp\ccMupnzh.000013b8.o:.L435
                  0x000f9e                  C:\Users\rbair\AppData\Local\Temp\ccMupnzh.000013b8.o:.L436
                  0x000faa                  C:\Users\rbair\AppData\Local\Temp\ccMupnzh.000013b8.o:.L437
                  0x000fb6                  C:\Users\rbair\AppData\Local\Temp\ccMupnzh.000013b8.o:.L438
                  0x000fc2                  C:\Users\rbair\AppData\Local\Temp\ccMupnzh.000013b8.o:.L439
                  0x000fce                  C:\Users\rbair\AppData\Local\Temp\ccMupnzh.000013b8.o:.L440
                  0x000fda                  C:\Users\rbair\AppData\Local\Temp\ccMupnzh.000013b8.o:.L441
                  0x000fe6                  C:\Users\rbair\AppData\Local\Temp\ccMupnzh.000013b8.o:.L442
                  0x000ff0                  C:\Users\rbair\AppData\Local\Temp\ccMupnzh.000013b8.o:.L443
                  0x000ffc                  C:\Users\rbair\AppData\Local\Temp\ccMupnzh.000013b8.o:.L444
                  0x001008                  C:\Users\rbair\AppData\Local\Temp\ccMupnzh.000013b8.o:.L445
                  0x001014                  C:\Users\rbair\AppData\Local\Temp\ccMupnzh.000013b8.o:.L446
                  0x001024                  C:\Users\rbair\AppData\Local\Temp\ccMupnzh.000013b8.o:.L447
                  0x001048                  C:\Users\rbair\AppData\Local\Temp\ccMupnzh.000013b8.o:.L452
                  0x001054                  C:\Users\rbair\AppData\Local\Temp\ccMupnzh.000013b8.o:.L453
                  0x001060                  C:\Users\rbair\AppData\Local\Temp\ccMupnzh.000013b8.o:.L454
                  0x00106c                  C:\Users\rbair\AppData\Local\Temp\ccMupnzh.000013b8.o:.L455
                  0x001078                  C:\Users\rbair\AppData\Local\Temp\ccMupnzh.000013b8.o:.L456
                  0x001084                  C:\Users\rbair\AppData\Local\Temp\ccMupnzh.000013b8.o:.L457
                  0x001090                  C:\Users\rbair\AppData\Local\Temp\ccMupnzh.000013b8.o:.L458
                  0x00109c                  C:\Users\rbair\AppData\Local\Temp\ccMupnzh.000013b8.o:.L459
                  0x0010a8                  C:\Users\rbair\AppData\Local\Temp\ccMupnzh.000013b8.o:.L460
                  0x0010b4                  C:\Users\rbair\AppData\Local\Temp\ccMupnzh.000013b8.o:.L461
                  0x0010be                  C:\Users\rbair\AppData\Local\Temp\ccMupnzh.000013b8.o:.L462
                  0x0010ca                  C:\Users\rbair\AppData\Local\Temp\ccMupnzh.000013b8.o:.L463
                  0x0010d4                  C:\Users\rbair\AppData\Local\Temp\ccMupnzh.000013b8.o:.L464
                  0x0010e0                  C:\Users\rbair\AppData\Local\Temp\ccMupnzh.000013b8.o:.L465
                  0x0010ec                  C:\Users\rbair\AppData\Local\Temp\ccMupnzh.000013b8.o:.L466
                  0x001102                  C:\Users\rbair\AppData\Local\Temp\ccMupnzh.000013b8.o:.L467
                  0x00110e                  C:\Users\rbair\AppData\Local\Temp\ccMupnzh.000013b8.o:.L468
                  0x00111a                  C:\Users\rbair\AppData\Local\Temp\ccMupnzh.000013b8.o:.L469
                  0x001126                  C:\Users\rbair\AppData\Local\Temp\ccMupnzh.000013b8.o:.L470
                  0x001132                  C:\Users\rbair\AppData\Local\Temp\ccMupnzh.000013b8.o:.L471
                  0x00113e                  C:\Users\rbair\AppData\Local\Temp\ccMupnzh.000013b8.o:.L472
                  0x00114a                  C:\Users\rbair\AppData\Local\Temp\ccMupnzh.000013b8.o:.L473
                  0x001156                  C:\Users\rbair\AppData\Local\Temp\ccMupnzh.000013b8.o:.L474
                  0x001160                  C:\Users\rbair\AppData\Local\Temp\ccMupnzh.000013b8.o:.L475
                  0x001170                  C:\Users\rbair\AppData\Local\Temp\ccMupnzh.000013b8.o:.L476
                  0x00117c                  C:\Users\rbair\AppData\Local\Temp\ccMupnzh.000013b8.o:.L477
                  0x001188                  C:\Users\rbair\AppData\Local\Temp\ccMupnzh.000013b8.o:.L478
                  0x001194                  C:\Users\rbair\AppData\Local\Temp\ccMupnzh.000013b8.o:.L479
                  0x0011a0                  C:\Users\rbair\AppData\Local\Temp\ccMupnzh.000013b8.o:.L480
                  0x0011aa                  C:\Users\rbair\AppData\Local\Temp\ccMupnzh.000013b8.o:.L481
                  0x0011ba                  C:\Users\rbair\AppData\Local\Temp\ccMupnzh.000013b8.o:.L482
                  0x0011c6                  C:\Users\rbair\AppData\Local\Temp\ccMupnzh.000013b8.o:.L483
                  0x0011d2                  C:\Users\rbair\AppData\Local\Temp\ccMupnzh.000013b8.o:.L484
                  0x0011de                  C:\Users\rbair\AppData\Local\Temp\ccMupnzh.000013b8.o:.L485
                  0x0011e8                  C:\Users\rbair\AppData\Local\Temp\ccMupnzh.000013b8.o:.L486
                  0x0011f8                  C:\Users\rbair\AppData\Local\Temp\ccMupnzh.000013b8.o:.L487
                  0x001204                  C:\Users\rbair\AppData\Local\Temp\ccMupnzh.000013b8.o:.L488
                  0x001210                  C:\Users\rbair\AppData\Local\Temp\ccMupnzh.000013b8.o:.L489
                  0x00121c                  C:\Users\rbair\AppData\Local\Temp\ccMupnzh.000013b8.o:.L490
                  0x001226                  C:\Users\rbair\AppData\Local\Temp\ccMupnzh.000013b8.o:.L491
                  0x001236                  C:\Users\rbair\AppData\Local\Temp\ccMupnzh.000013b8.o:.L492
                  0x001260                  C:\Users\rbair\AppData\Local\Temp\ccMupnzh.000013b8.o:.L499
                  0x001270                  C:\Users\rbair\AppData\Local\Temp\ccMupnzh.000013b8.o:.L501
                  0x001282                  C:\Users\rbair\AppData\Local\Temp\ccMupnzh.000013b8.o:.L504
                  0x001294                  C:\Users\rbair\AppData\Local\Temp\ccMupnzh.000013b8.o:.L507
                  0x0012a6                  C:\Users\rbair\AppData\Local\Temp\ccMupnzh.000013b8.o:.L510
                  0x0012b8                  C:\Users\rbair\AppData\Local\Temp\ccMupnzh.000013b8.o:.L513
                  0x0012ca                  C:\Users\rbair\AppData\Local\Temp\ccMupnzh.000013b8.o:.L516
                  0x0012dc                  C:\Users\rbair\AppData\Local\Temp\ccMupnzh.000013b8.o:.L518
                  0x001434                  C:\Users\rbair\AppData\Local\Temp\ccMupnzh.000013b8.o:.L519
                  0x001440                  C:\Users\rbair\AppData\Local\Temp\ccMupnzh.000013b8.o:.L520
                  0x001406                  C:\Users\rbair\AppData\Local\Temp\ccMupnzh.000013b8.o:.L522
                  0x001410                  C:\Users\rbair\AppData\Local\Temp\ccMupnzh.000013b8.o:.L523
                  0x00141c                  C:\Users\rbair\AppData\Local\Temp\ccMupnzh.000013b8.o:.L524
                  0x001428                  C:\Users\rbair\AppData\Local\Temp\ccMupnzh.000013b8.o:.L525
                  0x0013b2                  C:\Users\rbair\AppData\Local\Temp\ccMupnzh.000013b8.o:.L526
                  0x0013be                  C:\Users\rbair\AppData\Local\Temp\ccMupnzh.000013b8.o:.L527
                  0x0013ca                  C:\Users\rbair\AppData\Local\Temp\ccMupnzh.000013b8.o:.L528
                  0x0013d4                  C:\Users\rbair\AppData\Local\Temp\ccMupnzh.000013b8.o:.L529
                  0x0013de                  C:\Users\rbair\AppData\Local\Temp\ccMupnzh.000013b8.o:.L530
                  0x0013e8                  C:\Users\rbair\AppData\Local\Temp\ccMupnzh.000013b8.o:.L531
                  0x0013f2                  C:\Users\rbair\AppData\Local\Temp\ccMupnzh.000013b8.o:.L532
                  0x0013fc                  C:\Users\rbair\AppData\Local\Temp\ccMupnzh.000013b8.o:.L533
                  0x0012e8                  C:\Users\rbair\AppData\Local\Temp\ccMupnzh.000013b8.o:.L534
                  0x0012f2                  C:\Users\rbair\AppData\Local\Temp\ccMupnzh.000013b8.o:.L535
                  0x0012fc                  C:\Users\rbair\AppData\Local\Temp\ccMupnzh.000013b8.o:.L536
                  0x001306                  C:\Users\rbair\AppData\Local\Temp\ccMupnzh.000013b8.o:.L537
                  0x001310                  C:\Users\rbair\AppData\Local\Temp\ccMupnzh.000013b8.o:.L538
                  0x00131a                  C:\Users\rbair\AppData\Local\Temp\ccMupnzh.000013b8.o:.L539
                  0x001324                  C:\Users\rbair\AppData\Local\Temp\ccMupnzh.000013b8.o:.L540
                  0x00132e                  C:\Users\rbair\AppData\Local\Temp\ccMupnzh.000013b8.o:.L541
                  0x001338                  C:\Users\rbair\AppData\Local\Temp\ccMupnzh.000013b8.o:.L542
                  0x001342                  C:\Users\rbair\AppData\Local\Temp\ccMupnzh.000013b8.o:.L543
                  0x00134c                  C:\Users\rbair\AppData\Local\Temp\ccMupnzh.000013b8.o:.L544
                  0x001362                  C:\Users\rbair\AppData\Local\Temp\ccMupnzh.000013b8.o:.L547
                  0x00136e                  C:\Users\rbair\AppData\Local\Temp\ccMupnzh.000013b8.o:.L548
                  0x001384                  C:\Users\rbair\AppData\Local\Temp\ccMupnzh.000013b8.o:.L551
                  0x001390                  C:\Users\rbair\AppData\Local\Temp\ccMupnzh.000013b8.o:.L552
                  0x0013a6                  C:\Users\rbair\AppData\Local\Temp\ccMupnzh.000013b8.o:.L555
                  0x001936                  _CLC1_Initialize
                  0x00195c                  _CLC1_NegativeEdge_Tasks
                  0x001968                  _CLC1_OutputStatusGet
                  0x001950                  _CLC1_PositiveEdge_Tasks
                  0x001974                  _CLOCK_Initialize
                  0x003732                  _FLASH_ErasePage
                  0x003818                  _FLASH_GetErasePageAddress
                  0x003812                  _FLASH_GetErasePageOffset
                  0x0036de                  _FLASH_Lock
                  0x003726                  _FLASH_ReadWord16
                  0x003718                  _FLASH_ReadWord24
                  0x0036ec                  _FLASH_SendNvmKey
                  0x0036d4                  _FLASH_Unlock
                  0x003782                  _FLASH_WriteDoubleWord16
                  0x00374e                  _FLASH_WriteDoubleWord24
                  0x0037da                  _FLASH_WriteRow16
                  0x0037b8                  _FLASH_WriteRow24
                  0x00196e                  _INTERRUPT_Initialize
                  0x0019be                  _PIN_MANAGER_Initialize
                  0x001a84                  _PIN_MANAGER_enableInterrupt_On_Change
                  0x001aba                  _RESET_CauseClearAll
                  0x001a8a                  _RESET_GetCause
                  0x001adc                  _SPI1_Exchange
                  0x001b5c                  _SPI1_Exchange8bit
                  0x001b6c                  _SPI1_Exchange8bitBuffer
                  0x001aee                  _SPI1_ExchangeBuffer
                  0x001ad6                  _SPI1_HighSpeed
                  0x001abe                  _SPI1_Initialize
                  0x001b6e                  _SPI1_StatusGet
                  0x001a48                  _SYSTEM_Initialize
                  0x0035d2                  _TitleBackColor1
                  0x003652                  _TitleBackColor2
                  0x0030d2                  _TitleColor1
                  0x003352                  _TitleColor2
                  0x002bd2                  _TitleGraph1
                  0x002e52                  _TitleGraph2
                  0x0006a6                  __AddressError
                  0x0006fa                  __CNCInterrupt
                  0x0015c8                  __DefaultInterrupt
                  0x00af00                  __FSEC.sec
                  0x00066e                  __HardTrapError
                  0x00068a                  __MathError
                  0x0006de                  __OscillatorFail
                  0x00064a                  __SoftTrapError
                  0x0006c2                  __StackError
                  0x002bb6                  ___delay32
                  0x000200                  __resetALT
                  0x00382e                  _brightLabelEven
                  0x003874                  _brightLabelOdd
                  0x001eaa                  _cardAcmd
                  0x001d5a                  _cardCommand
                  0x001d48                  _chipSelectHigh
                  0x001d4c                  _chipSelectLow
                  0x001c06                  _copyFromFlash
                  0x001cf6                  _coreInit
                  0x00201c                  _disk_initialize
                  0x001ff4                  _disk_read_block1
                  0x00200a                  _disk_read_block2
                  0x001e76                  _endReadBlock
                  0x001e62                  _endReadBlockMulti
                  0x001b72                  _flash_led
                  0x001862                  _frameInit
                  0x0018fe                  _frameInitTitle
                  0x002082                  _get_fat
                  0x00273c                  _handleFirmwareUpdate
                  0x002044                  _ld_dword
                  0x00203a                  _ld_word
                  0x003946                  _levelBarsEvenData
                  0x003afe                  _levelBarsOddData
                  0x00291a                  _main
                  0x004800                  _main2
                  0x0015ce                  _memcmp
                  0x0020e2                  _pf_mount
                  0x002438                  _pf_open_first
                  0x0025d8                  _pf_read_block
                  0x002310                  _pf_seek_block
                  0x0025e8                  _prepareNextFrame
                  0x001cc2                  _resetNewCode
                  0x00263e                  _runFrameLoop
                  0x0026b2                  _runTitle
                  0x003cb6                  _scale0
                  0x003cc6                  _scale1
                  0x003d56                  _scale10
                  0x003cd6                  _scale2
                  0x003ce6                  _scale3
                  0x003cf6                  _scale4
                  0x003d06                  _scale5
                  0x003d16                  _scale6
                  0x003d26                  _scale7
                  0x003d36                  _scale8
                  0x003d46                  _scale9
                  0x003d66                  _scaleList
                  0x001d50                  _sd_error
                  0x001ec4                  _sdcard_init
                  0x001bce                  _serialLED
                  0x0025a2                  _setupDisk
                  0x001c46                  _setupTitle
                  0x003d7c                  _shiftBright
                  0x001d34                  _spiRec
                  0x001e0c                  _startBlockReady
                  0x001e1a                  _startReadBlock
                  0x001e3e                  _startReadBlockMulti
                  0x002ba6                  _updateBuffer
                  0x0029b8                  _updateColor
                  0x0028ea                  _updateInit
                  0x0015ea                  _updateTransport
                  0x002966                  _updateVolume
                  0x0038ba                  _volumeLabelEven
                  0x003900                  _volumeLabelOdd
                  0x001ce6                  _waitEndFrame

Memory Configuration

Name             Origin             Length             Attributes
data             0x001000           0x002000           a !xr
reset            0x000000           0x000004  
ivt              0x000004           0x0001fc  
program          0x000200           0x00ad00           xr
FSEC             0x00af00           0x000002  
FBSLIM           0x00af10           0x000002  
FOSCSEL          0x00af18           0x000002  
FOSC             0x00af1c           0x000002  
FWDT             0x00af20           0x000002  
FPOR             0x00af24           0x000002  
FICD             0x00af28           0x000002  
FDMTIVTL         0x00af2c           0x000002  
FDMTIVTH         0x00af30           0x000002  
FDMTCNTL         0x00af34           0x000002  
FDMTCNTH         0x00af38           0x000002  
FDMT             0x00af3c           0x000002  
FDEVOPT          0x00af40           0x000002  
FALTREG          0x00af44           0x000002  
*default*        0x000000           0xffffffff  

Linker script and memory map

LOAD C:\Users\rbair\AppData\Local\Temp\cc7sN7ja.000013b8.o
LOAD C:\Users\rbair\AppData\Local\Temp\ccMupnzh.000013b8.o
LOAD firmware.production.elf
                    0x0001                  __MPLAB_BUILD = 0x1
LOAD p33CK64MC105
LOAD c:/program files/microchip/xc16/v2.10/bin/bin/../../lib\libfx-elf.a
                    0x801028                  _iwri1 = 0x801028
                    0x80102c                  _iwri2 = 0x80102c
                    0xaf00                  __FSEC = 0xaf00
                    0xaf10                  __FBSLIM = 0xaf10
                    0xaf18                  __FOSCSEL = 0xaf18
                    0xaf1c                  __FOSC = 0xaf1c
                    0xaf20                  __FWDT = 0xaf20
                    0xaf24                  __FPOR = 0xaf24
                    0xaf28                  __FICD = 0xaf28
                    0xaf2c                  __FDMTIVTL = 0xaf2c
                    0xaf30                  __FDMTIVTH = 0xaf30
                    0xaf34                  __FDMTCNTL = 0xaf34
                    0xaf38                  __FDMTCNTH = 0xaf38
                    0xaf3c                  __FDMT = 0xaf3c
                    0xaf40                  __FDEVOPT = 0xaf40
                    0xaf44                  __FALTREG = 0xaf44
                    0x0001                  __NO_HANDLES = 0x1
                    0x0200                  __CODE_BASE = 0x200
                    0xad00                  __CODE_LENGTH = 0xad00
                    0x0004                  __IVT_BASE = 0x4
                    0x1000                  __DATA_BASE = 0x1000
                    0x2000                  __DATA_LENGTH = 0x2000
                    0x2000                  __YDATA_BASE = 0x2000
                    0x3000                  __YDATA_END = 0x3000

.reset            0x000000          0x4
                  0x000000          0x2 SHORT 0x200 ABSOLUTE (__reset)
                  0x000001          0x2 SHORT 0x4
                  0x000002          0x2 SHORT 0x0 ((ABSOLUTE (__reset) >> 0x10) & 0x7f)
                  0x000003          0x2 SHORT 0x0

.text             0x000200       0x3622
 *(.init)
 .init            0x000200         0x22 c:/program files/microchip/xc16/v2.10/bin/bin/../../lib\libc99-pic30-elf.a(crt1_extendedch.o)
                  0x000200                  __resetALT
                  0x000200                  __reset
 *(.user_init)
 *(.handle)
 *(.isr*)
 .isrerror_handler
                  0x00064a         0xb0 C:\Users\rbair\AppData\Local\Temp\ccMupnzh.000013b8.o
                  0x00064a                  __SoftTrapError
                  0x00066e                  __HardTrapError
                  0x00068a                  __MathError
                  0x0006a6                  __AddressError
                  0x0006c2                  __StackError
                  0x0006de                  __OscillatorFail
 .isr.text        0x0006fa        0xece C:\Users\rbair\AppData\Local\Temp\ccMupnzh.000013b8.o
                  0x0006fa                  __CNCInterrupt
                  0x000712                  C:\Users\rbair\AppData\Local\Temp\ccMupnzh.000013b8.o:.L268
                  0x000722                  C:\Users\rbair\AppData\Local\Temp\ccMupnzh.000013b8.o:.L269
                  0x00072e                  C:\Users\rbair\AppData\Local\Temp\ccMupnzh.000013b8.o:.L270
                  0x00073a                  C:\Users\rbair\AppData\Local\Temp\ccMupnzh.000013b8.o:.L271
                  0x000746                  C:\Users\rbair\AppData\Local\Temp\ccMupnzh.000013b8.o:.L272
                  0x000752                  C:\Users\rbair\AppData\Local\Temp\ccMupnzh.000013b8.o:.L273
                  0x00075e                  C:\Users\rbair\AppData\Local\Temp\ccMupnzh.000013b8.o:.L274
                  0x00076a                  C:\Users\rbair\AppData\Local\Temp\ccMupnzh.000013b8.o:.L275
                  0x000774                  C:\Users\rbair\AppData\Local\Temp\ccMupnzh.000013b8.o:.L276
                  0x000780                  C:\Users\rbair\AppData\Local\Temp\ccMupnzh.000013b8.o:.L277
                  0x00078a                  C:\Users\rbair\AppData\Local\Temp\ccMupnzh.000013b8.o:.L278
                  0x000796                  C:\Users\rbair\AppData\Local\Temp\ccMupnzh.000013b8.o:.L279
                  0x0007a2                  C:\Users\rbair\AppData\Local\Temp\ccMupnzh.000013b8.o:.L280
                  0x0007ae                  C:\Users\rbair\AppData\Local\Temp\ccMupnzh.000013b8.o:.L281
                  0x0007ba                  C:\Users\rbair\AppData\Local\Temp\ccMupnzh.000013b8.o:.L282
                  0x0007c6                  C:\Users\rbair\AppData\Local\Temp\ccMupnzh.000013b8.o:.L283
                  0x0007d2                  C:\Users\rbair\AppData\Local\Temp\ccMupnzh.000013b8.o:.L284
                  0x0007de                  C:\Users\rbair\AppData\Local\Temp\ccMupnzh.000013b8.o:.L285
                  0x0007ea                  C:\Users\rbair\AppData\Local\Temp\ccMupnzh.000013b8.o:.L286
                  0x0007f6                  C:\Users\rbair\AppData\Local\Temp\ccMupnzh.000013b8.o:.L287
                  0x000802                  C:\Users\rbair\AppData\Local\Temp\ccMupnzh.000013b8.o:.L288
                  0x00080e                  C:\Users\rbair\AppData\Local\Temp\ccMupnzh.000013b8.o:.L289
                  0x00081a                  C:\Users\rbair\AppData\Local\Temp\ccMupnzh.000013b8.o:.L290
                  0x000826                  C:\Users\rbair\AppData\Local\Temp\ccMupnzh.000013b8.o:.L291
                  0x000832                  C:\Users\rbair\AppData\Local\Temp\ccMupnzh.000013b8.o:.L292
                  0x00083e                  C:\Users\rbair\AppData\Local\Temp\ccMupnzh.000013b8.o:.L293
                  0x00084a                  C:\Users\rbair\AppData\Local\Temp\ccMupnzh.000013b8.o:.L294
                  0x000856                  C:\Users\rbair\AppData\Local\Temp\ccMupnzh.000013b8.o:.L295
                  0x000862                  C:\Users\rbair\AppData\Local\Temp\ccMupnzh.000013b8.o:.L296
                  0x00086e                  C:\Users\rbair\AppData\Local\Temp\ccMupnzh.000013b8.o:.L297
                  0x00087a                  C:\Users\rbair\AppData\Local\Temp\ccMupnzh.000013b8.o:.L298
                  0x000886                  C:\Users\rbair\AppData\Local\Temp\ccMupnzh.000013b8.o:.L299
                  0x000892                  C:\Users\rbair\AppData\Local\Temp\ccMupnzh.000013b8.o:.L300
                  0x00089e                  C:\Users\rbair\AppData\Local\Temp\ccMupnzh.000013b8.o:.L301
                  0x0008aa                  C:\Users\rbair\AppData\Local\Temp\ccMupnzh.000013b8.o:.L302
                  0x0008b6                  C:\Users\rbair\AppData\Local\Temp\ccMupnzh.000013b8.o:.L303
                  0x0008c2                  C:\Users\rbair\AppData\Local\Temp\ccMupnzh.000013b8.o:.L304
                  0x0008ce                  C:\Users\rbair\AppData\Local\Temp\ccMupnzh.000013b8.o:.L305
                  0x0008da                  C:\Users\rbair\AppData\Local\Temp\ccMupnzh.000013b8.o:.L306
                  0x0008e6                  C:\Users\rbair\AppData\Local\Temp\ccMupnzh.000013b8.o:.L307
                  0x0008f2                  C:\Users\rbair\AppData\Local\Temp\ccMupnzh.000013b8.o:.L308
                  0x0008fe                  C:\Users\rbair\AppData\Local\Temp\ccMupnzh.000013b8.o:.L309
                  0x00090a                  C:\Users\rbair\AppData\Local\Temp\ccMupnzh.000013b8.o:.L310
                  0x000916                  C:\Users\rbair\AppData\Local\Temp\ccMupnzh.000013b8.o:.L311
                  0x000922                  C:\Users\rbair\AppData\Local\Temp\ccMupnzh.000013b8.o:.L312
                  0x00092e                  C:\Users\rbair\AppData\Local\Temp\ccMupnzh.000013b8.o:.L313
                  0x00093a                  C:\Users\rbair\AppData\Local\Temp\ccMupnzh.000013b8.o:.L314
                  0x000946                  C:\Users\rbair\AppData\Local\Temp\ccMupnzh.000013b8.o:.L315
                  0x000952                  C:\Users\rbair\AppData\Local\Temp\ccMupnzh.000013b8.o:.L316
                  0x00095e                  C:\Users\rbair\AppData\Local\Temp\ccMupnzh.000013b8.o:.L317
                  0x00096a                  C:\Users\rbair\AppData\Local\Temp\ccMupnzh.000013b8.o:.L318
                  0x000976                  C:\Users\rbair\AppData\Local\Temp\ccMupnzh.000013b8.o:.L319
                  0x000982                  C:\Users\rbair\AppData\Local\Temp\ccMupnzh.000013b8.o:.L320
                  0x00098e                  C:\Users\rbair\AppData\Local\Temp\ccMupnzh.000013b8.o:.L321
                  0x00099a                  C:\Users\rbair\AppData\Local\Temp\ccMupnzh.000013b8.o:.L322
                  0x0009a6                  C:\Users\rbair\AppData\Local\Temp\ccMupnzh.000013b8.o:.L323
                  0x0009b2                  C:\Users\rbair\AppData\Local\Temp\ccMupnzh.000013b8.o:.L324
                  0x0009be                  C:\Users\rbair\AppData\Local\Temp\ccMupnzh.000013b8.o:.L325
                  0x0009ca                  C:\Users\rbair\AppData\Local\Temp\ccMupnzh.000013b8.o:.L326
                  0x0009d6                  C:\Users\rbair\AppData\Local\Temp\ccMupnzh.000013b8.o:.L327
                  0x0009e2                  C:\Users\rbair\AppData\Local\Temp\ccMupnzh.000013b8.o:.L328
                  0x0009ee                  C:\Users\rbair\AppData\Local\Temp\ccMupnzh.000013b8.o:.L329
                  0x0009fa                  C:\Users\rbair\AppData\Local\Temp\ccMupnzh.000013b8.o:.L330
                  0x000a06                  C:\Users\rbair\AppData\Local\Temp\ccMupnzh.000013b8.o:.L331
                  0x000a1a                  C:\Users\rbair\AppData\Local\Temp\ccMupnzh.000013b8.o:.L332
                  0x000a26                  C:\Users\rbair\AppData\Local\Temp\ccMupnzh.000013b8.o:.L333
                  0x000a32                  C:\Users\rbair\AppData\Local\Temp\ccMupnzh.000013b8.o:.L334
                  0x000a3e                  C:\Users\rbair\AppData\Local\Temp\ccMupnzh.000013b8.o:.L335
                  0x000a4a                  C:\Users\rbair\AppData\Local\Temp\ccMupnzh.000013b8.o:.L336
                  0x000a56                  C:\Users\rbair\AppData\Local\Temp\ccMupnzh.000013b8.o:.L337
                  0x000a6c                  C:\Users\rbair\AppData\Local\Temp\ccMupnzh.000013b8.o:.L340
                  0x000a7c                  C:\Users\rbair\AppData\Local\Temp\ccMupnzh.000013b8.o:.L341
                  0x000a90                  C:\Users\rbair\AppData\Local\Temp\ccMupnzh.000013b8.o:.L342
                  0x000a9c                  C:\Users\rbair\AppData\Local\Temp\ccMupnzh.000013b8.o:.L343
                  0x000aa8                  C:\Users\rbair\AppData\Local\Temp\ccMupnzh.000013b8.o:.L344
                  0x000ab4                  C:\Users\rbair\AppData\Local\Temp\ccMupnzh.000013b8.o:.L345
                  0x000ac8                  C:\Users\rbair\AppData\Local\Temp\ccMupnzh.000013b8.o:.L346
                  0x000ad4                  C:\Users\rbair\AppData\Local\Temp\ccMupnzh.000013b8.o:.L347
                  0x000ae8                  C:\Users\rbair\AppData\Local\Temp\ccMupnzh.000013b8.o:.L348
                  0x000af4                  C:\Users\rbair\AppData\Local\Temp\ccMupnzh.000013b8.o:.L349
                  0x000b00                  C:\Users\rbair\AppData\Local\Temp\ccMupnzh.000013b8.o:.L350
                  0x000b0c                  C:\Users\rbair\AppData\Local\Temp\ccMupnzh.000013b8.o:.L351
                  0x000b1e                  C:\Users\rbair\AppData\Local\Temp\ccMupnzh.000013b8.o:.L352
                  0x000b2a                  C:\Users\rbair\AppData\Local\Temp\ccMupnzh.000013b8.o:.L353
                  0x000b36                  C:\Users\rbair\AppData\Local\Temp\ccMupnzh.000013b8.o:.L354
                  0x000b42                  C:\Users\rbair\AppData\Local\Temp\ccMupnzh.000013b8.o:.L355
                  0x000b54                  C:\Users\rbair\AppData\Local\Temp\ccMupnzh.000013b8.o:.L356
                  0x000b60                  C:\Users\rbair\AppData\Local\Temp\ccMupnzh.000013b8.o:.L357
                  0x000b6c                  C:\Users\rbair\AppData\Local\Temp\ccMupnzh.000013b8.o:.L358
                  0x000b78                  C:\Users\rbair\AppData\Local\Temp\ccMupnzh.000013b8.o:.L359
                  0x000b8c                  C:\Users\rbair\AppData\Local\Temp\ccMupnzh.000013b8.o:.L360
                  0x000b98                  C:\Users\rbair\AppData\Local\Temp\ccMupnzh.000013b8.o:.L361
                  0x000ba4                  C:\Users\rbair\AppData\Local\Temp\ccMupnzh.000013b8.o:.L362
                  0x000bb0                  C:\Users\rbair\AppData\Local\Temp\ccMupnzh.000013b8.o:.L363
                  0x000bc6                  C:\Users\rbair\AppData\Local\Temp\ccMupnzh.000013b8.o:.L364
                  0x000bd2                  C:\Users\rbair\AppData\Local\Temp\ccMupnzh.000013b8.o:.L365
                  0x000bde                  C:\Users\rbair\AppData\Local\Temp\ccMupnzh.000013b8.o:.L366
                  0x000bea                  C:\Users\rbair\AppData\Local\Temp\ccMupnzh.000013b8.o:.L367
                  0x000bfe                  C:\Users\rbair\AppData\Local\Temp\ccMupnzh.000013b8.o:.L368
                  0x000c0a                  C:\Users\rbair\AppData\Local\Temp\ccMupnzh.000013b8.o:.L369
                  0x000c16                  C:\Users\rbair\AppData\Local\Temp\ccMupnzh.000013b8.o:.L370
                  0x000c22                  C:\Users\rbair\AppData\Local\Temp\ccMupnzh.000013b8.o:.L371
                  0x000c36                  C:\Users\rbair\AppData\Local\Temp\ccMupnzh.000013b8.o:.L372
                  0x000c42                  C:\Users\rbair\AppData\Local\Temp\ccMupnzh.000013b8.o:.L373
                  0x000c4e                  C:\Users\rbair\AppData\Local\Temp\ccMupnzh.000013b8.o:.L374
                  0x000c5a                  C:\Users\rbair\AppData\Local\Temp\ccMupnzh.000013b8.o:.L375
                  0x000c6e                  C:\Users\rbair\AppData\Local\Temp\ccMupnzh.000013b8.o:.L376
                  0x000c7a                  C:\Users\rbair\AppData\Local\Temp\ccMupnzh.000013b8.o:.L377
                  0x000c86                  C:\Users\rbair\AppData\Local\Temp\ccMupnzh.000013b8.o:.L378
                  0x000c92                  C:\Users\rbair\AppData\Local\Temp\ccMupnzh.000013b8.o:.L379
                  0x000c9e                  C:\Users\rbair\AppData\Local\Temp\ccMupnzh.000013b8.o:.L380
                  0x000caa                  C:\Users\rbair\AppData\Local\Temp\ccMupnzh.000013b8.o:.L381
                  0x000cb6                  C:\Users\rbair\AppData\Local\Temp\ccMupnzh.000013b8.o:.L382
                  0x000cc2                  C:\Users\rbair\AppData\Local\Temp\ccMupnzh.000013b8.o:.L383
                  0x000cce                  C:\Users\rbair\AppData\Local\Temp\ccMupnzh.000013b8.o:.L384
                  0x000cd8                  C:\Users\rbair\AppData\Local\Temp\ccMupnzh.000013b8.o:.L385
                  0x000ce4                  C:\Users\rbair\AppData\Local\Temp\ccMupnzh.000013b8.o:.L386
                  0x000cf0                  C:\Users\rbair\AppData\Local\Temp\ccMupnzh.000013b8.o:.L387
                  0x000cfc                  C:\Users\rbair\AppData\Local\Temp\ccMupnzh.000013b8.o:.L388
                  0x000d08                  C:\Users\rbair\AppData\Local\Temp\ccMupnzh.000013b8.o:.L389
                  0x000d14                  C:\Users\rbair\AppData\Local\Temp\ccMupnzh.000013b8.o:.L390
                  0x000d1e                  C:\Users\rbair\AppData\Local\Temp\ccMupnzh.000013b8.o:.L391
                  0x000d32                  C:\Users\rbair\AppData\Local\Temp\ccMupnzh.000013b8.o:.L392
                  0x000d3e                  C:\Users\rbair\AppData\Local\Temp\ccMupnzh.000013b8.o:.L393
                  0x000d4a                  C:\Users\rbair\AppData\Local\Temp\ccMupnzh.000013b8.o:.L394
                  0x000d56                  C:\Users\rbair\AppData\Local\Temp\ccMupnzh.000013b8.o:.L395
                  0x000d62                  C:\Users\rbair\AppData\Local\Temp\ccMupnzh.000013b8.o:.L396
                  0x000d6e                  C:\Users\rbair\AppData\Local\Temp\ccMupnzh.000013b8.o:.L397
                  0x000d82                  C:\Users\rbair\AppData\Local\Temp\ccMupnzh.000013b8.o:.L398
                  0x000d8e                  C:\Users\rbair\AppData\Local\Temp\ccMupnzh.000013b8.o:.L399
                  0x000d9a                  C:\Users\rbair\AppData\Local\Temp\ccMupnzh.000013b8.o:.L400
                  0x000da6                  C:\Users\rbair\AppData\Local\Temp\ccMupnzh.000013b8.o:.L401
                  0x000dbc                  C:\Users\rbair\AppData\Local\Temp\ccMupnzh.000013b8.o:.L402
                  0x000dc8                  C:\Users\rbair\AppData\Local\Temp\ccMupnzh.000013b8.o:.L403
                  0x000dd4                  C:\Users\rbair\AppData\Local\Temp\ccMupnzh.000013b8.o:.L404
                  0x000de0                  C:\Users\rbair\AppData\Local\Temp\ccMupnzh.000013b8.o:.L405
                  0x000df4                  C:\Users\rbair\AppData\Local\Temp\ccMupnzh.000013b8.o:.L406
                  0x000e00                  C:\Users\rbair\AppData\Local\Temp\ccMupnzh.000013b8.o:.L407
                  0x000e14                  C:\Users\rbair\AppData\Local\Temp\ccMupnzh.000013b8.o:.L408
                  0x000e20                  C:\Users\rbair\AppData\Local\Temp\ccMupnzh.000013b8.o:.L409
                  0x000e34                  C:\Users\rbair\AppData\Local\Temp\ccMupnzh.000013b8.o:.L410
                  0x000e40                  C:\Users\rbair\AppData\Local\Temp\ccMupnzh.000013b8.o:.L411
                  0x000e4c                  C:\Users\rbair\AppData\Local\Temp\ccMupnzh.000013b8.o:.L412
                  0x000e58                  C:\Users\rbair\AppData\Local\Temp\ccMupnzh.000013b8.o:.L413
                  0x000e6c                  C:\Users\rbair\AppData\Local\Temp\ccMupnzh.000013b8.o:.L414
                  0x000e78                  C:\Users\rbair\AppData\Local\Temp\ccMupnzh.000013b8.o:.L415
                  0x000e84                  C:\Users\rbair\AppData\Local\Temp\ccMupnzh.000013b8.o:.L416
                  0x000e90                  C:\Users\rbair\AppData\Local\Temp\ccMupnzh.000013b8.o:.L417
                  0x000ea4                  C:\Users\rbair\AppData\Local\Temp\ccMupnzh.000013b8.o:.L418
                  0x000eb0                  C:\Users\rbair\AppData\Local\Temp\ccMupnzh.000013b8.o:.L419
                  0x000ebc                  C:\Users\rbair\AppData\Local\Temp\ccMupnzh.000013b8.o:.L420
                  0x000ec8                  C:\Users\rbair\AppData\Local\Temp\ccMupnzh.000013b8.o:.L421
                  0x000ede                  C:\Users\rbair\AppData\Local\Temp\ccMupnzh.000013b8.o:.L422
                  0x000eea                  C:\Users\rbair\AppData\Local\Temp\ccMupnzh.000013b8.o:.L423
                  0x000ef6                  C:\Users\rbair\AppData\Local\Temp\ccMupnzh.000013b8.o:.L424
                  0x000f02                  C:\Users\rbair\AppData\Local\Temp\ccMupnzh.000013b8.o:.L425
                  0x000f16                  C:\Users\rbair\AppData\Local\Temp\ccMupnzh.000013b8.o:.L426
                  0x000f22                  C:\Users\rbair\AppData\Local\Temp\ccMupnzh.000013b8.o:.L427
                  0x000f2e                  C:\Users\rbair\AppData\Local\Temp\ccMupnzh.000013b8.o:.L428
                  0x000f3a                  C:\Users\rbair\AppData\Local\Temp\ccMupnzh.000013b8.o:.L429
                  0x000f4e                  C:\Users\rbair\AppData\Local\Temp\ccMupnzh.000013b8.o:.L430
                  0x000f5a                  C:\Users\rbair\AppData\Local\Temp\ccMupnzh.000013b8.o:.L431
                  0x000f66                  C:\Users\rbair\AppData\Local\Temp\ccMupnzh.000013b8.o:.L432
                  0x000f72                  C:\Users\rbair\AppData\Local\Temp\ccMupnzh.000013b8.o:.L433
                  0x000f86                  C:\Users\rbair\AppData\Local\Temp\ccMupnzh.000013b8.o:.L434
                  0x000f92                  C:\Users\rbair\AppData\Local\Temp\ccMupnzh.000013b8.o:.L435
                  0x000f9e                  C:\Users\rbair\AppData\Local\Temp\ccMupnzh.000013b8.o:.L436
                  0x000faa                  C:\Users\rbair\AppData\Local\Temp\ccMupnzh.000013b8.o:.L437
                  0x000fb6                  C:\Users\rbair\AppData\Local\Temp\ccMupnzh.000013b8.o:.L438
                  0x000fc2                  C:\Users\rbair\AppData\Local\Temp\ccMupnzh.000013b8.o:.L439
                  0x000fce                  C:\Users\rbair\AppData\Local\Temp\ccMupnzh.000013b8.o:.L440
                  0x000fda                  C:\Users\rbair\AppData\Local\Temp\ccMupnzh.000013b8.o:.L441
                  0x000fe6                  C:\Users\rbair\AppData\Local\Temp\ccMupnzh.000013b8.o:.L442
                  0x000ff0                  C:\Users\rbair\AppData\Local\Temp\ccMupnzh.000013b8.o:.L443
                  0x000ffc                  C:\Users\rbair\AppData\Local\Temp\ccMupnzh.000013b8.o:.L444
                  0x001008                  C:\Users\rbair\AppData\Local\Temp\ccMupnzh.000013b8.o:.L445
                  0x001014                  C:\Users\rbair\AppData\Local\Temp\ccMupnzh.000013b8.o:.L446
                  0x001024                  C:\Users\rbair\AppData\Local\Temp\ccMupnzh.000013b8.o:.L447
                  0x001048                  C:\Users\rbair\AppData\Local\Temp\ccMupnzh.000013b8.o:.L452
                  0x001054                  C:\Users\rbair\AppData\Local\Temp\ccMupnzh.000013b8.o:.L453
                  0x001060                  C:\Users\rbair\AppData\Local\Temp\ccMupnzh.000013b8.o:.L454
                  0x00106c                  C:\Users\rbair\AppData\Local\Temp\ccMupnzh.000013b8.o:.L455
                  0x001078                  C:\Users\rbair\AppData\Local\Temp\ccMupnzh.000013b8.o:.L456
                  0x001084                  C:\Users\rbair\AppData\Local\Temp\ccMupnzh.000013b8.o:.L457
                  0x001090                  C:\Users\rbair\AppData\Local\Temp\ccMupnzh.000013b8.o:.L458
                  0x00109c                  C:\Users\rbair\AppData\Local\Temp\ccMupnzh.000013b8.o:.L459
                  0x0010a8                  C:\Users\rbair\AppData\Local\Temp\ccMupnzh.000013b8.o:.L460
                  0x0010b4                  C:\Users\rbair\AppData\Local\Temp\ccMupnzh.000013b8.o:.L461
                  0x0010be                  C:\Users\rbair\AppData\Local\Temp\ccMupnzh.000013b8.o:.L462
                  0x0010ca                  C:\Users\rbair\AppData\Local\Temp\ccMupnzh.000013b8.o:.L463
                  0x0010d4                  C:\Users\rbair\AppData\Local\Temp\ccMupnzh.000013b8.o:.L464
                  0x0010e0                  C:\Users\rbair\AppData\Local\Temp\ccMupnzh.000013b8.o:.L465
                  0x0010ec                  C:\Users\rbair\AppData\Local\Temp\ccMupnzh.000013b8.o:.L466
                  0x001102                  C:\Users\rbair\AppData\Local\Temp\ccMupnzh.000013b8.o:.L467
                  0x00110e                  C:\Users\rbair\AppData\Local\Temp\ccMupnzh.000013b8.o:.L468
                  0x00111a                  C:\Users\rbair\AppData\Local\Temp\ccMupnzh.000013b8.o:.L469
                  0x001126                  C:\Users\rbair\AppData\Local\Temp\ccMupnzh.000013b8.o:.L470
                  0x001132                  C:\Users\rbair\AppData\Local\Temp\ccMupnzh.000013b8.o:.L471
                  0x00113e                  C:\Users\rbair\AppData\Local\Temp\ccMupnzh.000013b8.o:.L472
                  0x00114a                  C:\Users\rbair\AppData\Local\Temp\ccMupnzh.000013b8.o:.L473
                  0x001156                  C:\Users\rbair\AppData\Local\Temp\ccMupnzh.000013b8.o:.L474
                  0x001160                  C:\Users\rbair\AppData\Local\Temp\ccMupnzh.000013b8.o:.L475
                  0x001170                  C:\Users\rbair\AppData\Local\Temp\ccMupnzh.000013b8.o:.L476
                  0x00117c                  C:\Users\rbair\AppData\Local\Temp\ccMupnzh.000013b8.o:.L477
                  0x001188                  C:\Users\rbair\AppData\Local\Temp\ccMupnzh.000013b8.o:.L478
                  0x001194                  C:\Users\rbair\AppData\Local\Temp\ccMupnzh.000013b8.o:.L479
                  0x0011a0                  C:\Users\rbair\AppData\Local\Temp\ccMupnzh.000013b8.o:.L480
                  0x0011aa                  C:\Users\rbair\AppData\Local\Temp\ccMupnzh.000013b8.o:.L481
                  0x0011ba                  C:\Users\rbair\AppData\Local\Temp\ccMupnzh.000013b8.o:.L482
                  0x0011c6                  C:\Users\rbair\AppData\Local\Temp\ccMupnzh.000013b8.o:.L483
                  0x0011d2                  C:\Users\rbair\AppData\Local\Temp\ccMupnzh.000013b8.o:.L484
                  0x0011de                  C:\Users\rbair\AppData\Local\Temp\ccMupnzh.000013b8.o:.L485
                  0x0011e8                  C:\Users\rbair\AppData\Local\Temp\ccMupnzh.000013b8.o:.L486
                  0x0011f8                  C:\Users\rbair\AppData\Local\Temp\ccMupnzh.000013b8.o:.L487
                  0x001204                  C:\Users\rbair\AppData\Local\Temp\ccMupnzh.000013b8.o:.L488
                  0x001210                  C:\Users\rbair\AppData\Local\Temp\ccMupnzh.000013b8.o:.L489
                  0x00121c                  C:\Users\rbair\AppData\Local\Temp\ccMupnzh.000013b8.o:.L490
                  0x001226                  C:\Users\rbair\AppData\Local\Temp\ccMupnzh.000013b8.o:.L491
                  0x001236                  C:\Users\rbair\AppData\Local\Temp\ccMupnzh.000013b8.o:.L492
                  0x001260                  C:\Users\rbair\AppData\Local\Temp\ccMupnzh.000013b8.o:.L499
                  0x001270                  C:\Users\rbair\AppData\Local\Temp\ccMupnzh.000013b8.o:.L501
                  0x001282                  C:\Users\rbair\AppData\Local\Temp\ccMupnzh.000013b8.o:.L504
                  0x001294                  C:\Users\rbair\AppData\Local\Temp\ccMupnzh.000013b8.o:.L507
                  0x0012a6                  C:\Users\rbair\AppData\Local\Temp\ccMupnzh.000013b8.o:.L510
                  0x0012b8                  C:\Users\rbair\AppData\Local\Temp\ccMupnzh.000013b8.o:.L513
                  0x0012ca                  C:\Users\rbair\AppData\Local\Temp\ccMupnzh.000013b8.o:.L516
                  0x0012dc                  C:\Users\rbair\AppData\Local\Temp\ccMupnzh.000013b8.o:.L518
                  0x0012e8                  C:\Users\rbair\AppData\Local\Temp\ccMupnzh.000013b8.o:.L534
                  0x0012f2                  C:\Users\rbair\AppData\Local\Temp\ccMupnzh.000013b8.o:.L535
                  0x0012fc                  C:\Users\rbair\AppData\Local\Temp\ccMupnzh.000013b8.o:.L536
                  0x001306                  C:\Users\rbair\AppData\Local\Temp\ccMupnzh.000013b8.o:.L537
                  0x001310                  C:\Users\rbair\AppData\Local\Temp\ccMupnzh.000013b8.o:.L538
                  0x00131a                  C:\Users\rbair\AppData\Local\Temp\ccMupnzh.000013b8.o:.L539
                  0x001324                  C:\Users\rbair\AppData\Local\Temp\ccMupnzh.000013b8.o:.L540
                  0x00132e                  C:\Users\rbair\AppData\Local\Temp\ccMupnzh.000013b8.o:.L541
                  0x001338                  C:\Users\rbair\AppData\Local\Temp\ccMupnzh.000013b8.o:.L542
                  0x001342                  C:\Users\rbair\AppData\Local\Temp\ccMupnzh.000013b8.o:.L543
                  0x00134c                  C:\Users\rbair\AppData\Local\Temp\ccMupnzh.000013b8.o:.L544
                  0x001362                  C:\Users\rbair\AppData\Local\Temp\ccMupnzh.000013b8.o:.L547
                  0x00136e                  C:\Users\rbair\AppData\Local\Temp\ccMupnzh.000013b8.o:.L548
                  0x001384                  C:\Users\rbair\AppData\Local\Temp\ccMupnzh.000013b8.o:.L551
                  0x001390                  C:\Users\rbair\AppData\Local\Temp\ccMupnzh.000013b8.o:.L552
                  0x0013a6                  C:\Users\rbair\AppData\Local\Temp\ccMupnzh.000013b8.o:.L555
                  0x0013b2                  C:\Users\rbair\AppData\Local\Temp\ccMupnzh.000013b8.o:.L526
                  0x0013be                  C:\Users\rbair\AppData\Local\Temp\ccMupnzh.000013b8.o:.L527
                  0x0013ca                  C:\Users\rbair\AppData\Local\Temp\ccMupnzh.000013b8.o:.L528
                  0x0013d4                  C:\Users\rbair\AppData\Local\Temp\ccMupnzh.000013b8.o:.L529
                  0x0013de                  C:\Users\rbair\AppData\Local\Temp\ccMupnzh.000013b8.o:.L530
                  0x0013e8                  C:\Users\rbair\AppData\Local\Temp\ccMupnzh.000013b8.o:.L531
                  0x0013f2                  C:\Users\rbair\AppData\Local\Temp\ccMupnzh.000013b8.o:.L532
                  0x0013fc                  C:\Users\rbair\AppData\Local\Temp\ccMupnzh.000013b8.o:.L533
                  0x001406                  C:\Users\rbair\AppData\Local\Temp\ccMupnzh.000013b8.o:.L522
                  0x001410                  C:\Users\rbair\AppData\Local\Temp\ccMupnzh.000013b8.o:.L523
                  0x00141c                  C:\Users\rbair\AppData\Local\Temp\ccMupnzh.000013b8.o:.L524
                  0x001428                  C:\Users\rbair\AppData\Local\Temp\ccMupnzh.000013b8.o:.L525
                  0x001434                  C:\Users\rbair\AppData\Local\Temp\ccMupnzh.000013b8.o:.L519
                  0x001440                  C:\Users\rbair\AppData\Local\Temp\ccMupnzh.000013b8.o:.L520
 .isr             0x0015c8          0x4 default_isr
                  0x0015c8                  __DefaultInterrupt
 *(.libc)
 *(.libm)
 *(.libdsp)
 *(.lib*)
 .libpic30_crt_start_mode
                  0x0015cc          0x2 c:/program files/microchip/xc16/v2.10/bin/bin/../../lib\libc99-pic30-elf.a(crt_start_mode_normalch.Meo)
                  0x0015cc                  __crt_start_mode
                  0x0015cc                  __crt_start_mode_normal
 .libc.memcmp     0x0015ce         0x1c c:/program files/microchip/xc16/v2.10/bin/bin/../../lib\libc99-elf.a(memcmp.CH_o)
                  0x0015ce                  _memcmp
 *(.dinit)
 *(.text)
 .text            0x0015ea       0x15cc C:\Users\rbair\AppData\Local\Temp\ccMupnzh.000013b8.o
                  0x0015ea                  _updateTransport
                  0x001862                  _frameInit
                  0x0018fe                  _frameInitTitle
                  0x001936                  _CLC1_Initialize
                  0x00194c                  _CLC1_PositiveEdge_CallBack
                  0x00194e                  _CLC1_NegativeEdge_CallBack
                  0x001950                  _CLC1_PositiveEdge_Tasks
                  0x00195c                  _CLC1_NegativeEdge_Tasks
                  0x001968                  _CLC1_OutputStatusGet
                  0x00196e                  _INTERRUPT_Initialize
                  0x001974                  _CLOCK_Initialize
                  0x0019be                  _PIN_MANAGER_Initialize
                  0x001a48                  _SYSTEM_Initialize
                  0x001a84                  _PIN_MANAGER_enableInterrupt_On_Change
                  0x001a8a                  _RESET_GetCause
                  0x001a8e                  _RESET_CauseHandler
                  0x001aba                  _RESET_CauseClearAll
                  0x001abe                  _SPI1_Initialize
                  0x001ad6                  _SPI1_HighSpeed
                  0x001adc                  _SPI1_Exchange
                  0x001aee                  _SPI1_ExchangeBuffer
                  0x001b5c                  _SPI1_Exchange8bit
                  0x001b6c                  _SPI1_Exchange8bitBuffer
                  0x001b6e                  _SPI1_StatusGet
                  0x001b72                  _flash_led
                  0x001bae                  _TRAPS_halt_on_error
                  0x001bce                  _serialLED
                  0x001c06                  _copyFromFlash
                  0x001c46                  _setupTitle
                  0x001cc2                  _resetNewCode
                  0x001ce6                  _waitEndFrame
                  0x001cf6                  _coreInit
                  0x001d34                  _spiRec
                  0x001d48                  _chipSelectHigh
                  0x001d4c                  _chipSelectLow
                  0x001d50                  _sd_error
                  0x001d5a                  _cardCommand
                  0x001e0c                  _startBlockReady
                  0x001e1a                  _startReadBlock
                  0x001e3e                  _startReadBlockMulti
                  0x001e62                  _endReadBlockMulti
                  0x001e76                  _endReadBlock
                  0x001eaa                  _cardAcmd
                  0x001ec4                  _sdcard_init
                  0x001ff4                  _disk_read_block1
                  0x00200a                  _disk_read_block2
                  0x00201c                  _disk_initialize
                  0x00203a                  _ld_word
                  0x002044                  _ld_dword
                  0x002082                  _get_fat
                  0x0020e2                  _pf_mount
                  0x002310                  _pf_seek_block
                  0x002438                  _pf_open_first
                  0x0025a2                  _setupDisk
                  0x0025d8                  _pf_read_block
                  0x0025e8                  _prepareNextFrame
                  0x00263e                  _runFrameLoop
                  0x0026b2                  _runTitle
                  0x00273c                  _handleFirmwareUpdate
                  0x0028ea                  _updateInit
                  0x00291a                  _main
                  0x002966                  _updateVolume
                  0x0029b8                  _updateColor
                  0x002ba6                  _updateBuffer
 *(.init.delay32)
 .init.delay32    0x002bb6         0x1c c:/program files/microchip/xc16/v2.10/bin/bin/../../lib\libc99-pic30-elf.a(delay32ch.Meo)
                  0x002bb6                  ___delay32
 *(.title)
 .title           0x002bd2        0xb00 C:\Users\rbair\AppData\Local\Temp\cc7sN7ja.000013b8.o
                  0x002bd2                  _TitleGraph1
                  0x002e52                  _TitleGraph2
                  0x0030d2                  _TitleColor1
                  0x003352                  _TitleColor2
                  0x0035d2                  _TitleBackColor1
                  0x003652                  _TitleBackColor2
 *(.NVM_flash)
 .NVM_flash       0x0036d2        0x150 C:\Users\rbair\AppData\Local\Temp\cc7sN7ja.000013b8.o
                  0x0036d4                  _FLASH_Unlock
                  0x0036de                  _FLASH_Lock
                  0x0036ec                  _FLASH_SendNvmKey
                  0x003718                  _FLASH_ReadWord24
                  0x003726                  _FLASH_ReadWord16
                  0x003732                  _FLASH_ErasePage
                  0x00374e                  _FLASH_WriteDoubleWord24
                  0x003782                  _FLASH_WriteDoubleWord16
                  0x0037b8                  _FLASH_WriteRow24
                  0x0037da                  _FLASH_WriteRow16
                  0x003812                  _FLASH_GetErasePageOffset
                  0x003818                  _FLASH_GetErasePageAddress

.const              0xb822        0x974
 *(.const)
 .const             0xb822        0x974 C:\Users\rbair\AppData\Local\Temp\ccMupnzh.000013b8.o
                    0xb82e                  _brightLabelEven
                    0xb874                  _brightLabelOdd
                    0xb8ba                  _volumeLabelEven
                    0xb900                  _volumeLabelOdd
                    0xb946                  _levelBarsEvenData
                    0xbafe                  _levelBarsOddData
                    0xbcb6                  _scale0
                    0xbcc6                  _scale1
                    0xbcd6                  _scale2
                    0xbce6                  _scale3
                    0xbcf6                  _scale4
                    0xbd06                  _scale5
                    0xbd16                  _scale6
                    0xbd26                  _scale7
                    0xbd36                  _scale8
                    0xbd46                  _scale9
                    0xbd56                  _scale10
                    0xbd66                  _scaleList
                    0xbd7c                  _shiftBright

usercode
 *(usercode)

.newcode          0x004800          0x2
 *(.newcode)
 .newcode         0x004800          0x2 C:\Users\rbair\AppData\Local\Temp\ccMupnzh.000013b8.o
                  0x004800                  _main2

__FSEC            0x00af00          0x2
 *(__FSEC.sec*)
 __FSEC.sec       0x00af00          0x2 /CW/_FSEC
                  0x00af00                  __FSEC.sec

__FBSLIM
 *(__FBSLIM.sec*)

__FOSCSEL
 *(__FOSCSEL.sec*)

__FOSC
 *(__FOSC.sec*)

__FWDT
 *(__FWDT.sec*)

__FPOR
 *(__FPOR.sec*)

__FICD
 *(__FICD.sec*)

__FDMTIVTL
 *(__FDMTIVTL.sec*)

__FDMTIVTH
 *(__FDMTIVTH.sec*)

__FDMTCNTL
 *(__FDMTCNTL.sec*)

__FDMTCNTH
 *(__FDMTCNTH.sec*)

__FDMT
 *(__FDMT.sec*)

__FDEVOPT
 *(__FDEVOPT.sec*)

__FALTREG
 *(__FALTREG.sec*)

.comment
 *(.comment)

.debug_info       0x000000       0xcd3d
 *(.debug_info)
 .debug_info      0x000000       0xcd3d C:\Users\rbair\AppData\Local\Temp\ccMupnzh.000013b8.o
 *(.gnu.linkonce.wi.*)

.debug_abbrev     0x000000        0x4c7
 *(.debug_abbrev)
 .debug_abbrev    0x000000        0x4c7 C:\Users\rbair\AppData\Local\Temp\ccMupnzh.000013b8.o

.debug_line       0x000000       0x1424
 *(.debug_line)
 .debug_line      0x000000       0x1424 C:\Users\rbair\AppData\Local\Temp\ccMupnzh.000013b8.o

.debug_frame      0x000000        0x72c
 *(.debug_frame)
 .debug_frame     0x000000        0x72c C:\Users\rbair\AppData\Local\Temp\ccMupnzh.000013b8.o

.debug_str        0x000000        0xbb0
 *(.debug_str)
 .debug_str       0x000000        0xbb0 C:\Users\rbair\AppData\Local\Temp\ccMupnzh.000013b8.o

.debug_loc
 *(.debug_loc)

.debug_macinfo
 *(.debug_macinfo)

.debug_pubnames
                  0x000000        0x6f0
 *(.debug_pubnames)
 .debug_pubnames
                  0x000000        0x6f0 C:\Users\rbair\AppData\Local\Temp\ccMupnzh.000013b8.o

.debug_ranges
 *(.debug_ranges)

.debug_aranges    0x000000         0x50
 *(.debug_aranges)
 .debug_aranges
                  0x000000         0x50 C:\Users\rbair\AppData\Local\Temp\ccMupnzh.000013b8.o
                    0x0000                  WREG0 = 0x0
                    0x0000                  _WREG0 = 0x0
                    0x0002                  WREG1 = 0x2
                    0x0002                  _WREG1 = 0x2
                    0x0004                  WREG2 = 0x4
                    0x0004                  _WREG2 = 0x4
                    0x0006                  WREG3 = 0x6
                    0x0006                  _WREG3 = 0x6
                    0x0008                  WREG4 = 0x8
                    0x0008                  _WREG4 = 0x8
                    0x000a                  WREG5 = 0xa
                    0x000a                  _WREG5 = 0xa
                    0x000c                  WREG6 = 0xc
                    0x000c                  _WREG6 = 0xc
                    0x000e                  WREG7 = 0xe
                    0x000e                  _WREG7 = 0xe
                    0x0010                  WREG8 = 0x10
                    0x0010                  _WREG8 = 0x10
                    0x0012                  WREG9 = 0x12
                    0x0012                  _WREG9 = 0x12
                    0x0014                  WREG10 = 0x14
                    0x0014                  _WREG10 = 0x14
                    0x0016                  WREG11 = 0x16
                    0x0016                  _WREG11 = 0x16
                    0x0018                  WREG12 = 0x18
                    0x0018                  _WREG12 = 0x18
                    0x001a                  WREG13 = 0x1a
                    0x001a                  _WREG13 = 0x1a
                    0x001c                  WREG14 = 0x1c
                    0x001c                  _WREG14 = 0x1c
                    0x001e                  WREG15 = 0x1e
                    0x001e                  _WREG15 = 0x1e
                    0x0020                  SPLIM = 0x20
                    0x0020                  _SPLIM = 0x20
                    0x0022                  ACCAL = 0x22
                    0x0022                  _ACCAL = 0x22
                    0x0024                  ACCAH = 0x24
                    0x0024                  _ACCAH = 0x24
                    0x0026                  ACCAU = 0x26
                    0x0026                  _ACCAU = 0x26
                    0x0028                  ACCBL = 0x28
                    0x0028                  _ACCBL = 0x28
                    0x002a                  ACCBH = 0x2a
                    0x002a                  _ACCBH = 0x2a
                    0x002c                  ACCBU = 0x2c
                    0x002c                  _ACCBU = 0x2c
                    0x002e                  PCL = 0x2e
                    0x002e                  _PCL = 0x2e
                    0x0030                  PCH = 0x30
                    0x0030                  _PCH = 0x30
                    0x0032                  DSRPAG = 0x32
                    0x0032                  _DSRPAG = 0x32
                    0x0032                  _DSRPAGbits = 0x32
                    0x0034                  DSWPAG = 0x34
                    0x0034                  _DSWPAG = 0x34
                    0x0034                  _DSWPAGbits = 0x34
                    0x0036                  RCOUNT = 0x36
                    0x0036                  _RCOUNT = 0x36
                    0x0038                  DCOUNT = 0x38
                    0x0038                  _DCOUNT = 0x38
                    0x003a                  DOSTARTL = 0x3a
                    0x003a                  _DOSTARTL = 0x3a
                    0x003c                  DOSTARTH = 0x3c
                    0x003c                  _DOSTARTH = 0x3c
                    0x003e                  DOENDL = 0x3e
                    0x003e                  _DOENDL = 0x3e
                    0x0040                  DOENDH = 0x40
                    0x0040                  _DOENDH = 0x40
                    0x0042                  SR = 0x42
                    0x0042                  _SR = 0x42
                    0x0042                  _SRbits = 0x42
                    0x0044                  CORCON = 0x44
                    0x0044                  _CORCON = 0x44
                    0x0044                  _CORCONbits = 0x44
                    0x0046                  MODCON = 0x46
                    0x0046                  _MODCON = 0x46
                    0x0046                  _MODCONbits = 0x46
                    0x0048                  XMODSRT = 0x48
                    0x0048                  _XMODSRT = 0x48
                    0x004a                  XMODEND = 0x4a
                    0x004a                  _XMODEND = 0x4a
                    0x004c                  YMODSRT = 0x4c
                    0x004c                  _YMODSRT = 0x4c
                    0x004e                  YMODEND = 0x4e
                    0x004e                  _YMODEND = 0x4e
                    0x0050                  XBREV = 0x50
                    0x0050                  _XBREV = 0x50
                    0x0050                  _XBREVbits = 0x50
                    0x0052                  DISICNT = 0x52
                    0x0052                  _DISICNT = 0x52
                    0x0054                  TBLPAG = 0x54
                    0x0054                  _TBLPAG = 0x54
                    0x0054                  _TBLPAGbits = 0x54
                    0x0056                  YPAG = 0x56
                    0x0056                  _YPAG = 0x56
                    0x0056                  _YPAGbits = 0x56
                    0x0058                  MSTRPR = 0x58
                    0x0058                  _MSTRPR = 0x58
                    0x0058                  _MSTRPRbits = 0x58
                    0x005a                  CTXTSTAT = 0x5a
                    0x005a                  _CTXTSTAT = 0x5a
                    0x005a                  _CTXTSTATbits = 0x5a
                    0x005c                  DMTCON = 0x5c
                    0x005c                  _DMTCON = 0x5c
                    0x005c                  _DMTCONbits = 0x5c
                    0x0060                  DMTPRECLR = 0x60
                    0x0060                  _DMTPRECLR = 0x60
                    0x0060                  _DMTPRECLRbits = 0x60
                    0x0064                  DMTCLR = 0x64
                    0x0064                  _DMTCLR = 0x64
                    0x0064                  _DMTCLRbits = 0x64
                    0x0068                  DMTSTAT = 0x68
                    0x0068                  _DMTSTAT = 0x68
                    0x0068                  _DMTSTATbits = 0x68
                    0x006c                  DMTCNTL = 0x6c
                    0x006c                  _DMTCNTL = 0x6c
                    0x006e                  DMTCNTH = 0x6e
                    0x006e                  _DMTCNTH = 0x6e
                    0x0070                  DMTHOLDREG = 0x70
                    0x0070                  _DMTHOLDREG = 0x70
                    0x0074                  DMTPSCNTL = 0x74
                    0x0074                  _DMTPSCNTL = 0x74
                    0x0076                  DMTPSCNTH = 0x76
                    0x0076                  _DMTPSCNTH = 0x76
                    0x0078                  DMTPSINTVL = 0x78
                    0x0078                  _DMTPSINTVL = 0x78
                    0x007a                  DMTPSINTVH = 0x7a
                    0x007a                  _DMTPSINTVH = 0x7a
                    0x0080                  SENT1CON1 = 0x80
                    0x0080                  _SENT1CON1 = 0x80
                    0x0080                  _SENT1CON1bits = 0x80
                    0x0084                  SENT1CON2 = 0x84
                    0x0084                  _SENT1CON2 = 0x84
                    0x0088                  SENT1CON3 = 0x88
                    0x0088                  _SENT1CON3 = 0x88
                    0x008c                  SENT1STAT = 0x8c
                    0x008c                  _SENT1STAT = 0x8c
                    0x008c                  _SENT1STATbits = 0x8c
                    0x0090                  SENT1SYNC = 0x90
                    0x0090                  _SENT1SYNC = 0x90
                    0x0094                  SENT1DATL = 0x94
                    0x0094                  _SENT1DATL = 0x94
                    0x0094                  _SENT1DATLbits = 0x94
                    0x0096                  SENT1DATH = 0x96
                    0x0096                  _SENT1DATH = 0x96
                    0x0096                  _SENT1DATHbits = 0x96
                    0x00b0                  CRCCON1 = 0xb0
                    0x00b0                  _CRCCON1 = 0xb0
                    0x00b0                  _CRCCON1bits = 0xb0
                    0x00b0                  CRCCONL = 0xb0
                    0x00b0                  _CRCCONL = 0xb0
                    0x00b0                  _CRCCONLbits = 0xb0
                    0x00b2                  CRCCON2 = 0xb2
                    0x00b2                  _CRCCON2 = 0xb2
                    0x00b2                  _CRCCON2bits = 0xb2
                    0x00b2                  CRCCONH = 0xb2
                    0x00b2                  _CRCCONH = 0xb2
                    0x00b2                  _CRCCONHbits = 0xb2
                    0x00b4                  CRCXORL = 0xb4
                    0x00b4                  _CRCXORL = 0xb4
                    0x00b4                  _CRCXORLbits = 0xb4
                    0x00b6                  CRCXORH = 0xb6
                    0x00b6                  _CRCXORH = 0xb6
                    0x00b6                  _CRCXORHbits = 0xb6
                    0x00b8                  CRCDATL = 0xb8
                    0x00b8                  _CRCDATL = 0xb8
                    0x00ba                  CRCDATH = 0xba
                    0x00ba                  _CRCDATH = 0xba
                    0x00bc                  CRCWDATL = 0xbc
                    0x00bc                  _CRCWDATL = 0xbc
                    0x00be                  CRCWDATH = 0xbe
                    0x00be                  _CRCWDATH = 0xbe
                    0x00c0                  CLC1CONL = 0xc0
                    0x00c0                  _CLC1CONL = 0xc0
                    0x00c0                  _CLC1CONLbits = 0xc0
                    0x00c2                  CLC1CONH = 0xc2
                    0x00c2                  _CLC1CONH = 0xc2
                    0x00c2                  _CLC1CONHbits = 0xc2
                    0x00c4                  CLC1SEL = 0xc4
                    0x00c4                  _CLC1SEL = 0xc4
                    0x00c4                  _CLC1SELbits = 0xc4
                    0x00c4                  CLC1SELL = 0xc4
                    0x00c4                  _CLC1SELL = 0xc4
                    0x00c4                  _CLC1SELLbits = 0xc4
                    0x00c8                  CLC1GLSL = 0xc8
                    0x00c8                  _CLC1GLSL = 0xc8
                    0x00c8                  _CLC1GLSLbits = 0xc8
                    0x00ca                  CLC1GLSH = 0xca
                    0x00ca                  _CLC1GLSH = 0xca
                    0x00ca                  _CLC1GLSHbits = 0xca
                    0x00cc                  CLC2CONL = 0xcc
                    0x00cc                  _CLC2CONL = 0xcc
                    0x00cc                  _CLC2CONLbits = 0xcc
                    0x00ce                  CLC2CONH = 0xce
                    0x00ce                  _CLC2CONH = 0xce
                    0x00ce                  _CLC2CONHbits = 0xce
                    0x00d0                  CLC2SEL = 0xd0
                    0x00d0                  _CLC2SEL = 0xd0
                    0x00d0                  _CLC2SELbits = 0xd0
                    0x00d0                  CLC2SELL = 0xd0
                    0x00d0                  _CLC2SELL = 0xd0
                    0x00d0                  _CLC2SELLbits = 0xd0
                    0x00d4                  CLC2GLSL = 0xd4
                    0x00d4                  _CLC2GLSL = 0xd4
                    0x00d4                  _CLC2GLSLbits = 0xd4
                    0x00d6                  CLC2GLSH = 0xd6
                    0x00d6                  _CLC2GLSH = 0xd6
                    0x00d6                  _CLC2GLSHbits = 0xd6
                    0x00d8                  CLC3CONL = 0xd8
                    0x00d8                  _CLC3CONL = 0xd8
                    0x00d8                  _CLC3CONLbits = 0xd8
                    0x00da                  CLC3CONH = 0xda
                    0x00da                  _CLC3CONH = 0xda
                    0x00da                  _CLC3CONHbits = 0xda
                    0x00dc                  CLC3SEL = 0xdc
                    0x00dc                  _CLC3SEL = 0xdc
                    0x00dc                  _CLC3SELbits = 0xdc
                    0x00dc                  CLC3SELL = 0xdc
                    0x00dc                  _CLC3SELL = 0xdc
                    0x00dc                  _CLC3SELLbits = 0xdc
                    0x00e0                  CLC3GLSL = 0xe0
                    0x00e0                  _CLC3GLSL = 0xe0
                    0x00e0                  _CLC3GLSLbits = 0xe0
                    0x00e2                  CLC3GLSH = 0xe2
                    0x00e2                  _CLC3GLSH = 0xe2
                    0x00e2                  _CLC3GLSHbits = 0xe2
                    0x00e4                  CLC4CONL = 0xe4
                    0x00e4                  _CLC4CONL = 0xe4
                    0x00e4                  _CLC4CONLbits = 0xe4
                    0x00e6                  CLC4CONH = 0xe6
                    0x00e6                  _CLC4CONH = 0xe6
                    0x00e6                  _CLC4CONHbits = 0xe6
                    0x00e8                  CLC4SEL = 0xe8
                    0x00e8                  _CLC4SEL = 0xe8
                    0x00e8                  _CLC4SELbits = 0xe8
                    0x00e8                  CLC4SELL = 0xe8
                    0x00e8                  _CLC4SELL = 0xe8
                    0x00e8                  _CLC4SELLbits = 0xe8
                    0x00ec                  CLC4GLSL = 0xec
                    0x00ec                  _CLC4GLSL = 0xec
                    0x00ec                  _CLC4GLSLbits = 0xec
                    0x00ee                  CLC4GLSH = 0xee
                    0x00ee                  _CLC4GLSH = 0xee
                    0x00ee                  _CLC4GLSHbits = 0xee
                    0x00f0                  ECCCONL = 0xf0
                    0x00f0                  _ECCCONL = 0xf0
                    0x00f0                  _ECCCONLbits = 0xf0
                    0x00f2                  ECCCONH = 0xf2
                    0x00f2                  _ECCCONH = 0xf2
                    0x00f2                  _ECCCONHbits = 0xf2
                    0x00f4                  ECCADDRL = 0xf4
                    0x00f4                  _ECCADDRL = 0xf4
                    0x00f6                  ECCADDRH = 0xf6
                    0x00f6                  _ECCADDRH = 0xf6
                    0x00f8                  ECCSTATL = 0xf8
                    0x00f8                  _ECCSTATL = 0xf8
                    0x00f8                  _ECCSTATLbits = 0xf8
                    0x00fa                  ECCSTATH = 0xfa
                    0x00fa                  _ECCSTATH = 0xfa
                    0x00fa                  _ECCSTATHbits = 0xfa
                    0x0100                  T1CON = 0x100
                    0x0100                  _T1CON = 0x100
                    0x0100                  _T1CONbits = 0x100
                    0x0104                  TMR1 = 0x104
                    0x0104                  _TMR1 = 0x104
                    0x0108                  PR1 = 0x108
                    0x0108                  _PR1 = 0x108
                    0x0140                  QEI1CON = 0x140
                    0x0140                  _QEI1CON = 0x140
                    0x0140                  _QEI1CONbits = 0x140
                    0x0144                  QEI1IOC = 0x144
                    0x0144                  _QEI1IOC = 0x144
                    0x0144                  _QEI1IOCbits = 0x144
                    0x0146                  QEI1IOCH = 0x146
                    0x0146                  _QEI1IOCH = 0x146
                    0x0146                  _QEI1IOCHbits = 0x146
                    0x0148                  QEI1STAT = 0x148
                    0x0148                  _QEI1STAT = 0x148
                    0x0148                  _QEI1STATbits = 0x148
                    0x014c                  POS1CNTL = 0x14c
                    0x014c                  _POS1CNTL = 0x14c
                    0x014e                  POS1CNTH = 0x14e
                    0x014e                  _POS1CNTH = 0x14e
                    0x0152                  POS1HLD = 0x152
                    0x0152                  _POS1HLD = 0x152
                    0x0154                  VEL1CNT = 0x154
                    0x0154                  _VEL1CNT = 0x154
                    0x0156                  VEL1CNTH = 0x156
                    0x0156                  _VEL1CNTH = 0x156
                    0x015a                  VEL1HLD = 0x15a
                    0x015a                  _VEL1HLD = 0x15a
                    0x015c                  INT1TMRL = 0x15c
                    0x015c                  _INT1TMRL = 0x15c
                    0x015e                  INT1TMRH = 0x15e
                    0x015e                  _INT1TMRH = 0x15e
                    0x0160                  INT1HLDL = 0x160
                    0x0160                  _INT1HLDL = 0x160
                    0x0162                  INT1HLDH = 0x162
                    0x0162                  _INT1HLDH = 0x162
                    0x0164                  INDX1CNTL = 0x164
                    0x0164                  _INDX1CNTL = 0x164
                    0x0166                  INDX1CNTH = 0x166
                    0x0166                  _INDX1CNTH = 0x166
                    0x016a                  INDX1HLD = 0x16a
                    0x016a                  _INDX1HLD = 0x16a
                    0x016c                  QEI1GECL = 0x16c
                    0x016c                  _QEI1GECL = 0x16c
                    0x016c                  QEI1ICL = 0x16c
                    0x016c                  _QEI1ICL = 0x16c
                    0x016e                  QEI1GECH = 0x16e
                    0x016e                  _QEI1GECH = 0x16e
                    0x016e                  QEI1ICH = 0x16e
                    0x016e                  _QEI1ICH = 0x16e
                    0x0170                  QEI1LECL = 0x170
                    0x0170                  _QEI1LECL = 0x170
                    0x0172                  QEI1LECH = 0x172
                    0x0172                  _QEI1LECH = 0x172
                    0x0200                  I2C1CON1 = 0x200
                    0x0200                  _I2C1CON1 = 0x200
                    0x0200                  _I2C1CON1bits = 0x200
                    0x0200                  I2C1CONL = 0x200
                    0x0200                  _I2C1CONL = 0x200
                    0x0200                  _I2C1CONLbits = 0x200
                    0x0202                  I2C1CON2 = 0x202
                    0x0202                  _I2C1CON2 = 0x202
                    0x0202                  _I2C1CON2bits = 0x202
                    0x0202                  I2C1CONH = 0x202
                    0x0202                  _I2C1CONH = 0x202
                    0x0202                  _I2C1CONHbits = 0x202
                    0x0204                  I2C1STAT = 0x204
                    0x0204                  _I2C1STAT = 0x204
                    0x0204                  _I2C1STATbits = 0x204
                    0x0208                  I2C1ADD = 0x208
                    0x0208                  _I2C1ADD = 0x208
                    0x0208                  _I2C1ADDbits = 0x208
                    0x020c                  I2C1MSK = 0x20c
                    0x020c                  _I2C1MSK = 0x20c
                    0x020c                  _I2C1MSKbits = 0x20c
                    0x0210                  I2C1BRG = 0x210
                    0x0210                  _I2C1BRG = 0x210
                    0x0214                  I2C1TRN = 0x214
                    0x0214                  _I2C1TRN = 0x214
                    0x0214                  _I2C1TRNbits = 0x214
                    0x0218                  I2C1RCV = 0x218
                    0x0218                  _I2C1RCV = 0x218
                    0x0218                  _I2C1RCVbits = 0x218
                    0x0238                  U1MODE = 0x238
                    0x0238                  _U1MODE = 0x238
                    0x0238                  _U1MODEbits = 0x238
                    0x023a                  U1MODEH = 0x23a
                    0x023a                  _U1MODEH = 0x23a
                    0x023a                  _U1MODEHbits = 0x23a
                    0x023c                  U1STA = 0x23c
                    0x023c                  _U1STA = 0x23c
                    0x023c                  _U1STAbits = 0x23c
                    0x023e                  U1STAH = 0x23e
                    0x023e                  _U1STAH = 0x23e
                    0x023e                  _U1STAHbits = 0x23e
                    0x0240                  U1BRG = 0x240
                    0x0240                  _U1BRG = 0x240
                    0x0240                  _U1BRGbits = 0x240
                    0x0242                  U1BRGH = 0x242
                    0x0242                  _U1BRGH = 0x242
                    0x0242                  _U1BRGHbits = 0x242
                    0x0244                  U1RXREG = 0x244
                    0x0244                  _U1RXREG = 0x244
                    0x0244                  _U1RXREGbits = 0x244
                    0x0248                  U1TXREG = 0x248
                    0x0248                  _U1TXREG = 0x248
                    0x0248                  _U1TXREGbits = 0x248
                    0x024c                  U1P1 = 0x24c
                    0x024c                  _U1P1 = 0x24c
                    0x024c                  _U1P1bits = 0x24c
                    0x024e                  U1P2 = 0x24e
                    0x024e                  _U1P2 = 0x24e
                    0x024e                  _U1P2bits = 0x24e
                    0x0250                  U1P3 = 0x250
                    0x0250                  _U1P3 = 0x250
                    0x0250                  _U1P3bits = 0x250
                    0x0252                  U1P3H = 0x252
                    0x0252                  _U1P3H = 0x252
                    0x0252                  _U1P3Hbits = 0x252
                    0x0254                  U1TXCHK = 0x254
                    0x0254                  _U1TXCHK = 0x254
                    0x0254                  _U1TXCHKbits = 0x254
                    0x0256                  U1RXCHK = 0x256
                    0x0256                  _U1RXCHK = 0x256
                    0x0256                  _U1RXCHKbits = 0x256
                    0x0258                  U1SCCON = 0x258
                    0x0258                  _U1SCCON = 0x258
                    0x0258                  _U1SCCONbits = 0x258
                    0x025a                  U1SCINT = 0x25a
                    0x025a                  _U1SCINT = 0x25a
                    0x025a                  _U1SCINTbits = 0x25a
                    0x025c                  U1INT = 0x25c
                    0x025c                  _U1INT = 0x25c
                    0x025c                  _U1INTbits = 0x25c
                    0x0260                  U2MODE = 0x260
                    0x0260                  _U2MODE = 0x260
                    0x0260                  _U2MODEbits = 0x260
                    0x0262                  U2MODEH = 0x262
                    0x0262                  _U2MODEH = 0x262
                    0x0262                  _U2MODEHbits = 0x262
                    0x0264                  U2STA = 0x264
                    0x0264                  _U2STA = 0x264
                    0x0264                  _U2STAbits = 0x264
                    0x0266                  U2STAH = 0x266
                    0x0266                  _U2STAH = 0x266
                    0x0266                  _U2STAHbits = 0x266
                    0x0268                  U2BRG = 0x268
                    0x0268                  _U2BRG = 0x268
                    0x0268                  _U2BRGbits = 0x268
                    0x026a                  U2BRGH = 0x26a
                    0x026a                  _U2BRGH = 0x26a
                    0x026a                  _U2BRGHbits = 0x26a
                    0x026c                  U2RXREG = 0x26c
                    0x026c                  _U2RXREG = 0x26c
                    0x026c                  _U2RXREGbits = 0x26c
                    0x0270                  U2TXREG = 0x270
                    0x0270                  _U2TXREG = 0x270
                    0x0270                  _U2TXREGbits = 0x270
                    0x0274                  U2P1 = 0x274
                    0x0274                  _U2P1 = 0x274
                    0x0274                  _U2P1bits = 0x274
                    0x0276                  U2P2 = 0x276
                    0x0276                  _U2P2 = 0x276
                    0x0276                  _U2P2bits = 0x276
                    0x0278                  U2P3 = 0x278
                    0x0278                  _U2P3 = 0x278
                    0x0278                  _U2P3bits = 0x278
                    0x027a                  U2P3H = 0x27a
                    0x027a                  _U2P3H = 0x27a
                    0x027a                  _U2P3Hbits = 0x27a
                    0x027c                  U2TXCHK = 0x27c
                    0x027c                  _U2TXCHK = 0x27c
                    0x027c                  _U2TXCHKbits = 0x27c
                    0x027e                  U2RXCHK = 0x27e
                    0x027e                  _U2RXCHK = 0x27e
                    0x027e                  _U2RXCHKbits = 0x27e
                    0x0280                  U2SCCON = 0x280
                    0x0280                  _U2SCCON = 0x280
                    0x0280                  _U2SCCONbits = 0x280
                    0x0282                  U2SCINT = 0x282
                    0x0282                  _U2SCINT = 0x282
                    0x0282                  _U2SCINTbits = 0x282
                    0x0284                  U2INT = 0x284
                    0x0284                  _U2INT = 0x284
                    0x0284                  _U2INTbits = 0x284
                    0x02ac                  SPI1CON1 = 0x2ac
                    0x02ac                  _SPI1CON1 = 0x2ac
                    0x02ac                  _SPI1CON1bits = 0x2ac
                    0x02ac                  SPI1CON1L = 0x2ac
                    0x02ac                  _SPI1CON1L = 0x2ac
                    0x02ac                  _SPI1CON1Lbits = 0x2ac
                    0x02ae                  SPI1CON1H = 0x2ae
                    0x02ae                  _SPI1CON1H = 0x2ae
                    0x02ae                  _SPI1CON1Hbits = 0x2ae
                    0x02ae                  SPI1CON2 = 0x2ae
                    0x02ae                  _SPI1CON2 = 0x2ae
                    0x02ae                  _SPI1CON2bits = 0x2ae
                    0x02b0                  SPI1CON2L = 0x2b0
                    0x02b0                  _SPI1CON2L = 0x2b0
                    0x02b0                  _SPI1CON2Lbits = 0x2b0
                    0x02b0                  SPI1CON3 = 0x2b0
                    0x02b0                  _SPI1CON3 = 0x2b0
                    0x02b0                  _SPI1CON3bits = 0x2b0
                    0x02b4                  SPI1STATL = 0x2b4
                    0x02b4                  _SPI1STATL = 0x2b4
                    0x02b4                  _SPI1STATLbits = 0x2b4
                    0x02b6                  SPI1STATH = 0x2b6
                    0x02b6                  _SPI1STATH = 0x2b6
                    0x02b6                  _SPI1STATHbits = 0x2b6
                    0x02b8                  SPI1BUFL = 0x2b8
                    0x02b8                  _SPI1BUFL = 0x2b8
                    0x02b8                  _SPI1BUFLbits = 0x2b8
                    0x02ba                  SPI1BUFH = 0x2ba
                    0x02ba                  _SPI1BUFH = 0x2ba
                    0x02ba                  _SPI1BUFHbits = 0x2ba
                    0x02bc                  SPI1BRGL = 0x2bc
                    0x02bc                  _SPI1BRGL = 0x2bc
                    0x02bc                  _SPI1BRGLbits = 0x2bc
                    0x02c0                  SPI1IMSK1 = 0x2c0
                    0x02c0                  _SPI1IMSK1 = 0x2c0
                    0x02c0                  _SPI1IMSK1bits = 0x2c0
                    0x02c0                  SPI1IMSKL = 0x2c0
                    0x02c0                  _SPI1IMSKL = 0x2c0
                    0x02c0                  _SPI1IMSKLbits = 0x2c0
                    0x02c2                  SPI1IMSK2 = 0x2c2
                    0x02c2                  _SPI1IMSK2 = 0x2c2
                    0x02c2                  _SPI1IMSK2bits = 0x2c2
                    0x02c2                  SPI1IMSKH = 0x2c2
                    0x02c2                  _SPI1IMSKH = 0x2c2
                    0x02c2                  _SPI1IMSKHbits = 0x2c2
                    0x02c4                  SPI1URDTL = 0x2c4
                    0x02c4                  _SPI1URDTL = 0x2c4
                    0x02c4                  _SPI1URDTLbits = 0x2c4
                    0x02c6                  SPI1URDTH = 0x2c6
                    0x02c6                  _SPI1URDTH = 0x2c6
                    0x02c6                  _SPI1URDTHbits = 0x2c6
                    0x02c8                  SPI2CON1 = 0x2c8
                    0x02c8                  _SPI2CON1 = 0x2c8
                    0x02c8                  _SPI2CON1bits = 0x2c8
                    0x02c8                  SPI2CON1L = 0x2c8
                    0x02c8                  _SPI2CON1L = 0x2c8
                    0x02c8                  _SPI2CON1Lbits = 0x2c8
                    0x02ca                  SPI2CON1H = 0x2ca
                    0x02ca                  _SPI2CON1H = 0x2ca
                    0x02ca                  _SPI2CON1Hbits = 0x2ca
                    0x02ca                  SPI2CON2 = 0x2ca
                    0x02ca                  _SPI2CON2 = 0x2ca
                    0x02ca                  _SPI2CON2bits = 0x2ca
                    0x02cc                  SPI2CON2L = 0x2cc
                    0x02cc                  _SPI2CON2L = 0x2cc
                    0x02cc                  _SPI2CON2Lbits = 0x2cc
                    0x02cc                  SPI2CON3 = 0x2cc
                    0x02cc                  _SPI2CON3 = 0x2cc
                    0x02cc                  _SPI2CON3bits = 0x2cc
                    0x02d0                  SPI2STATL = 0x2d0
                    0x02d0                  _SPI2STATL = 0x2d0
                    0x02d0                  _SPI2STATLbits = 0x2d0
                    0x02d2                  SPI2STATH = 0x2d2
                    0x02d2                  _SPI2STATH = 0x2d2
                    0x02d2                  _SPI2STATHbits = 0x2d2
                    0x02d4                  SPI2BUFL = 0x2d4
                    0x02d4                  _SPI2BUFL = 0x2d4
                    0x02d4                  _SPI2BUFLbits = 0x2d4
                    0x02d6                  SPI2BUFH = 0x2d6
                    0x02d6                  _SPI2BUFH = 0x2d6
                    0x02d6                  _SPI2BUFHbits = 0x2d6
                    0x02d8                  SPI2BRGL = 0x2d8
                    0x02d8                  _SPI2BRGL = 0x2d8
                    0x02d8                  _SPI2BRGLbits = 0x2d8
                    0x02dc                  SPI2IMSK1 = 0x2dc
                    0x02dc                  _SPI2IMSK1 = 0x2dc
                    0x02dc                  _SPI2IMSK1bits = 0x2dc
                    0x02dc                  SPI2IMSKL = 0x2dc
                    0x02dc                  _SPI2IMSKL = 0x2dc
                    0x02dc                  _SPI2IMSKLbits = 0x2dc
                    0x02de                  SPI2IMSK2 = 0x2de
                    0x02de                  _SPI2IMSK2 = 0x2de
                    0x02de                  _SPI2IMSK2bits = 0x2de
                    0x02de                  SPI2IMSKH = 0x2de
                    0x02de                  _SPI2IMSKH = 0x2de
                    0x02de                  _SPI2IMSKHbits = 0x2de
                    0x02e0                  SPI2URDTL = 0x2e0
                    0x02e0                  _SPI2URDTL = 0x2e0
                    0x02e0                  _SPI2URDTLbits = 0x2e0
                    0x02e2                  SPI2URDTH = 0x2e2
                    0x02e2                  _SPI2URDTH = 0x2e2
                    0x02e2                  _SPI2URDTHbits = 0x2e2
                    0x0300                  PCLKCON = 0x300
                    0x0300                  _PCLKCON = 0x300
                    0x0300                  _PCLKCONbits = 0x300
                    0x0302                  FSCL = 0x302
                    0x0302                  _FSCL = 0x302
                    0x0304                  FSMINPER = 0x304
                    0x0304                  _FSMINPER = 0x304
                    0x0306                  MPHASE = 0x306
                    0x0306                  _MPHASE = 0x306
                    0x0308                  MDC = 0x308
                    0x0308                  _MDC = 0x308
                    0x030a                  MPER = 0x30a
                    0x030a                  _MPER = 0x30a
                    0x030c                  LFSR = 0x30c
                    0x030c                  _LFSR = 0x30c
                    0x030c                  _LFSRbits = 0x30c
                    0x030e                  CMBTRIGL = 0x30e
                    0x030e                  _CMBTRIGL = 0x30e
                    0x030e                  _CMBTRIGLbits = 0x30e
                    0x0310                  CMBTRIGH = 0x310
                    0x0310                  _CMBTRIGH = 0x310
                    0x0310                  _CMBTRIGHbits = 0x310
                    0x0312                  LOGCONA = 0x312
                    0x0312                  _LOGCONA = 0x312
                    0x0312                  _LOGCONAbits = 0x312
                    0x0314                  LOGCONB = 0x314
                    0x0314                  _LOGCONB = 0x314
                    0x0314                  _LOGCONBbits = 0x314
                    0x0316                  LOGCONC = 0x316
                    0x0316                  _LOGCONC = 0x316
                    0x0316                  _LOGCONCbits = 0x316
                    0x0318                  LOGCOND = 0x318
                    0x0318                  _LOGCOND = 0x318
                    0x0318                  _LOGCONDbits = 0x318
                    0x031a                  LOGCONE = 0x31a
                    0x031a                  _LOGCONE = 0x31a
                    0x031a                  _LOGCONEbits = 0x31a
                    0x031c                  LOGCONF = 0x31c
                    0x031c                  _LOGCONF = 0x31c
                    0x031c                  _LOGCONFbits = 0x31c
                    0x031e                  PWMEVTA = 0x31e
                    0x031e                  _PWMEVTA = 0x31e
                    0x031e                  _PWMEVTAbits = 0x31e
                    0x0320                  PWMEVTB = 0x320
                    0x0320                  _PWMEVTB = 0x320
                    0x0320                  _PWMEVTBbits = 0x320
                    0x0322                  PWMEVTC = 0x322
                    0x0322                  _PWMEVTC = 0x322
                    0x0322                  _PWMEVTCbits = 0x322
                    0x0324                  PWMEVTD = 0x324
                    0x0324                  _PWMEVTD = 0x324
                    0x0324                  _PWMEVTDbits = 0x324
                    0x0326                  PWMEVTE = 0x326
                    0x0326                  _PWMEVTE = 0x326
                    0x0326                  _PWMEVTEbits = 0x326
                    0x0328                  PWMEVTF = 0x328
                    0x0328                  _PWMEVTF = 0x328
                    0x0328                  _PWMEVTFbits = 0x328
                    0x032a                  PG1CONL = 0x32a
                    0x032a                  _PG1CONL = 0x32a
                    0x032a                  _PG1CONLbits = 0x32a
                    0x032c                  PG1CONH = 0x32c
                    0x032c                  _PG1CONH = 0x32c
                    0x032c                  _PG1CONHbits = 0x32c
                    0x032e                  PG1STAT = 0x32e
                    0x032e                  _PG1STAT = 0x32e
                    0x032e                  _PG1STATbits = 0x32e
                    0x0330                  PG1IOCONL = 0x330
                    0x0330                  _PG1IOCONL = 0x330
                    0x0330                  _PG1IOCONLbits = 0x330
                    0x0332                  PG1IOCONH = 0x332
                    0x0332                  _PG1IOCONH = 0x332
                    0x0332                  _PG1IOCONHbits = 0x332
                    0x0334                  PG1EVTL = 0x334
                    0x0334                  _PG1EVTL = 0x334
                    0x0334                  _PG1EVTLbits = 0x334
                    0x0336                  PG1EVTH = 0x336
                    0x0336                  _PG1EVTH = 0x336
                    0x0336                  _PG1EVTHbits = 0x336
                    0x0338                  PG1FPCIL = 0x338
                    0x0338                  _PG1FPCIL = 0x338
                    0x0338                  _PG1FPCILbits = 0x338
                    0x033a                  PG1FPCIH = 0x33a
                    0x033a                  _PG1FPCIH = 0x33a
                    0x033a                  _PG1FPCIHbits = 0x33a
                    0x033c                  PG1CLPCIL = 0x33c
                    0x033c                  _PG1CLPCIL = 0x33c
                    0x033c                  _PG1CLPCILbits = 0x33c
                    0x033e                  PG1CLPCIH = 0x33e
                    0x033e                  _PG1CLPCIH = 0x33e
                    0x033e                  _PG1CLPCIHbits = 0x33e
                    0x0340                  PG1FFPCIL = 0x340
                    0x0340                  _PG1FFPCIL = 0x340
                    0x0340                  _PG1FFPCILbits = 0x340
                    0x0342                  PG1FFPCIH = 0x342
                    0x0342                  _PG1FFPCIH = 0x342
                    0x0342                  _PG1FFPCIHbits = 0x342
                    0x0344                  PG1SPCIL = 0x344
                    0x0344                  _PG1SPCIL = 0x344
                    0x0344                  _PG1SPCILbits = 0x344
                    0x0346                  PG1SPCIH = 0x346
                    0x0346                  _PG1SPCIH = 0x346
                    0x0346                  _PG1SPCIHbits = 0x346
                    0x0348                  PG1LEBL = 0x348
                    0x0348                  _PG1LEBL = 0x348
                    0x034a                  PG1LEBH = 0x34a
                    0x034a                  _PG1LEBH = 0x34a
                    0x034a                  _PG1LEBHbits = 0x34a
                    0x034c                  PG1PHASE = 0x34c
                    0x034c                  _PG1PHASE = 0x34c
                    0x034e                  PG1DC = 0x34e
                    0x034e                  _PG1DC = 0x34e
                    0x0350                  PG1DCA = 0x350
                    0x0350                  _PG1DCA = 0x350
                    0x0350                  _PG1DCAbits = 0x350
                    0x0352                  PG1PER = 0x352
                    0x0352                  _PG1PER = 0x352
                    0x0354                  PG1TRIGA = 0x354
                    0x0354                  _PG1TRIGA = 0x354
                    0x0356                  PG1TRIGB = 0x356
                    0x0356                  _PG1TRIGB = 0x356
                    0x0358                  PG1TRIGC = 0x358
                    0x0358                  _PG1TRIGC = 0x358
                    0x035a                  PG1DTL = 0x35a
                    0x035a                  _PG1DTL = 0x35a
                    0x035a                  _PG1DTLbits = 0x35a
                    0x035c                  PG1DTH = 0x35c
                    0x035c                  _PG1DTH = 0x35c
                    0x035c                  _PG1DTHbits = 0x35c
                    0x035e                  PG1CAP = 0x35e
                    0x035e                  _PG1CAP = 0x35e
                    0x0360                  PG2CONL = 0x360
                    0x0360                  _PG2CONL = 0x360
                    0x0360                  _PG2CONLbits = 0x360
                    0x0362                  PG2CONH = 0x362
                    0x0362                  _PG2CONH = 0x362
                    0x0362                  _PG2CONHbits = 0x362
                    0x0364                  PG2STAT = 0x364
                    0x0364                  _PG2STAT = 0x364
                    0x0364                  _PG2STATbits = 0x364
                    0x0366                  PG2IOCONL = 0x366
                    0x0366                  _PG2IOCONL = 0x366
                    0x0366                  _PG2IOCONLbits = 0x366
                    0x0368                  PG2IOCONH = 0x368
                    0x0368                  _PG2IOCONH = 0x368
                    0x0368                  _PG2IOCONHbits = 0x368
                    0x036a                  PG2EVTL = 0x36a
                    0x036a                  _PG2EVTL = 0x36a
                    0x036a                  _PG2EVTLbits = 0x36a
                    0x036c                  PG2EVTH = 0x36c
                    0x036c                  _PG2EVTH = 0x36c
                    0x036c                  _PG2EVTHbits = 0x36c
                    0x036e                  PG2FPCIL = 0x36e
                    0x036e                  _PG2FPCIL = 0x36e
                    0x036e                  _PG2FPCILbits = 0x36e
                    0x0370                  PG2FPCIH = 0x370
                    0x0370                  _PG2FPCIH = 0x370
                    0x0370                  _PG2FPCIHbits = 0x370
                    0x0372                  PG2CLPCIL = 0x372
                    0x0372                  _PG2CLPCIL = 0x372
                    0x0372                  _PG2CLPCILbits = 0x372
                    0x0374                  PG2CLPCIH = 0x374
                    0x0374                  _PG2CLPCIH = 0x374
                    0x0374                  _PG2CLPCIHbits = 0x374
                    0x0376                  PG2FFPCIL = 0x376
                    0x0376                  _PG2FFPCIL = 0x376
                    0x0376                  _PG2FFPCILbits = 0x376
                    0x0378                  PG2FFPCIH = 0x378
                    0x0378                  _PG2FFPCIH = 0x378
                    0x0378                  _PG2FFPCIHbits = 0x378
                    0x037a                  PG2SPCIL = 0x37a
                    0x037a                  _PG2SPCIL = 0x37a
                    0x037a                  _PG2SPCILbits = 0x37a
                    0x037c                  PG2SPCIH = 0x37c
                    0x037c                  _PG2SPCIH = 0x37c
                    0x037c                  _PG2SPCIHbits = 0x37c
                    0x037e                  PG2LEBL = 0x37e
                    0x037e                  _PG2LEBL = 0x37e
                    0x0380                  PG2LEBH = 0x380
                    0x0380                  _PG2LEBH = 0x380
                    0x0380                  _PG2LEBHbits = 0x380
                    0x0382                  PG2PHASE = 0x382
                    0x0382                  _PG2PHASE = 0x382
                    0x0384                  PG2DC = 0x384
                    0x0384                  _PG2DC = 0x384
                    0x0386                  PG2DCA = 0x386
                    0x0386                  _PG2DCA = 0x386
                    0x0386                  _PG2DCAbits = 0x386
                    0x0388                  PG2PER = 0x388
                    0x0388                  _PG2PER = 0x388
                    0x038a                  PG2TRIGA = 0x38a
                    0x038a                  _PG2TRIGA = 0x38a
                    0x038c                  PG2TRIGB = 0x38c
                    0x038c                  _PG2TRIGB = 0x38c
                    0x038e                  PG2TRIGC = 0x38e
                    0x038e                  _PG2TRIGC = 0x38e
                    0x0390                  PG2DTL = 0x390
                    0x0390                  _PG2DTL = 0x390
                    0x0390                  _PG2DTLbits = 0x390
                    0x0392                  PG2DTH = 0x392
                    0x0392                  _PG2DTH = 0x392
                    0x0392                  _PG2DTHbits = 0x392
                    0x0394                  PG2CAP = 0x394
                    0x0394                  _PG2CAP = 0x394
                    0x0396                  PG3CONL = 0x396
                    0x0396                  _PG3CONL = 0x396
                    0x0396                  _PG3CONLbits = 0x396
                    0x0398                  PG3CONH = 0x398
                    0x0398                  _PG3CONH = 0x398
                    0x0398                  _PG3CONHbits = 0x398
                    0x039a                  PG3STAT = 0x39a
                    0x039a                  _PG3STAT = 0x39a
                    0x039a                  _PG3STATbits = 0x39a
                    0x039c                  PG3IOCONL = 0x39c
                    0x039c                  _PG3IOCONL = 0x39c
                    0x039c                  _PG3IOCONLbits = 0x39c
                    0x039e                  PG3IOCONH = 0x39e
                    0x039e                  _PG3IOCONH = 0x39e
                    0x039e                  _PG3IOCONHbits = 0x39e
                    0x03a0                  PG3EVTL = 0x3a0
                    0x03a0                  _PG3EVTL = 0x3a0
                    0x03a0                  _PG3EVTLbits = 0x3a0
                    0x03a2                  PG3EVTH = 0x3a2
                    0x03a2                  _PG3EVTH = 0x3a2
                    0x03a2                  _PG3EVTHbits = 0x3a2
                    0x03a4                  PG3FPCIL = 0x3a4
                    0x03a4                  _PG3FPCIL = 0x3a4
                    0x03a4                  _PG3FPCILbits = 0x3a4
                    0x03a6                  PG3FPCIH = 0x3a6
                    0x03a6                  _PG3FPCIH = 0x3a6
                    0x03a6                  _PG3FPCIHbits = 0x3a6
                    0x03a8                  PG3CLPCIL = 0x3a8
                    0x03a8                  _PG3CLPCIL = 0x3a8
                    0x03a8                  _PG3CLPCILbits = 0x3a8
                    0x03aa                  PG3CLPCIH = 0x3aa
                    0x03aa                  _PG3CLPCIH = 0x3aa
                    0x03aa                  _PG3CLPCIHbits = 0x3aa
                    0x03ac                  PG3FFPCIL = 0x3ac
                    0x03ac                  _PG3FFPCIL = 0x3ac
                    0x03ac                  _PG3FFPCILbits = 0x3ac
                    0x03ae                  PG3FFPCIH = 0x3ae
                    0x03ae                  _PG3FFPCIH = 0x3ae
                    0x03ae                  _PG3FFPCIHbits = 0x3ae
                    0x03b0                  PG3SPCIL = 0x3b0
                    0x03b0                  _PG3SPCIL = 0x3b0
                    0x03b0                  _PG3SPCILbits = 0x3b0
                    0x03b2                  PG3SPCIH = 0x3b2
                    0x03b2                  _PG3SPCIH = 0x3b2
                    0x03b2                  _PG3SPCIHbits = 0x3b2
                    0x03b4                  PG3LEBL = 0x3b4
                    0x03b4                  _PG3LEBL = 0x3b4
                    0x03b6                  PG3LEBH = 0x3b6
                    0x03b6                  _PG3LEBH = 0x3b6
                    0x03b6                  _PG3LEBHbits = 0x3b6
                    0x03b8                  PG3PHASE = 0x3b8
                    0x03b8                  _PG3PHASE = 0x3b8
                    0x03ba                  PG3DC = 0x3ba
                    0x03ba                  _PG3DC = 0x3ba
                    0x03bc                  PG3DCA = 0x3bc
                    0x03bc                  _PG3DCA = 0x3bc
                    0x03bc                  _PG3DCAbits = 0x3bc
                    0x03be                  PG3PER = 0x3be
                    0x03be                  _PG3PER = 0x3be
                    0x03c0                  PG3TRIGA = 0x3c0
                    0x03c0                  _PG3TRIGA = 0x3c0
                    0x03c2                  PG3TRIGB = 0x3c2
                    0x03c2                  _PG3TRIGB = 0x3c2
                    0x03c4                  PG3TRIGC = 0x3c4
                    0x03c4                  _PG3TRIGC = 0x3c4
                    0x03c6                  PG3DTL = 0x3c6
                    0x03c6                  _PG3DTL = 0x3c6
                    0x03c6                  _PG3DTLbits = 0x3c6
                    0x03c8                  PG3DTH = 0x3c8
                    0x03c8                  _PG3DTH = 0x3c8
                    0x03c8                  _PG3DTHbits = 0x3c8
                    0x03ca                  PG3CAP = 0x3ca
                    0x03ca                  _PG3CAP = 0x3ca
                    0x03cc                  PG4CONL = 0x3cc
                    0x03cc                  _PG4CONL = 0x3cc
                    0x03cc                  _PG4CONLbits = 0x3cc
                    0x03ce                  PG4CONH = 0x3ce
                    0x03ce                  _PG4CONH = 0x3ce
                    0x03ce                  _PG4CONHbits = 0x3ce
                    0x03d0                  PG4STAT = 0x3d0
                    0x03d0                  _PG4STAT = 0x3d0
                    0x03d0                  _PG4STATbits = 0x3d0
                    0x03d2                  PG4IOCONL = 0x3d2
                    0x03d2                  _PG4IOCONL = 0x3d2
                    0x03d2                  _PG4IOCONLbits = 0x3d2
                    0x03d4                  PG4IOCONH = 0x3d4
                    0x03d4                  _PG4IOCONH = 0x3d4
                    0x03d4                  _PG4IOCONHbits = 0x3d4
                    0x03d6                  PG4EVTL = 0x3d6
                    0x03d6                  _PG4EVTL = 0x3d6
                    0x03d6                  _PG4EVTLbits = 0x3d6
                    0x03d8                  PG4EVTH = 0x3d8
                    0x03d8                  _PG4EVTH = 0x3d8
                    0x03d8                  _PG4EVTHbits = 0x3d8
                    0x03da                  PG4FPCIL = 0x3da
                    0x03da                  _PG4FPCIL = 0x3da
                    0x03da                  _PG4FPCILbits = 0x3da
                    0x03dc                  PG4FPCIH = 0x3dc
                    0x03dc                  _PG4FPCIH = 0x3dc
                    0x03dc                  _PG4FPCIHbits = 0x3dc
                    0x03de                  PG4CLPCIL = 0x3de
                    0x03de                  _PG4CLPCIL = 0x3de
                    0x03de                  _PG4CLPCILbits = 0x3de
                    0x03e0                  PG4CLPCIH = 0x3e0
                    0x03e0                  _PG4CLPCIH = 0x3e0
                    0x03e0                  _PG4CLPCIHbits = 0x3e0
                    0x03e2                  PG4FFPCIL = 0x3e2
                    0x03e2                  _PG4FFPCIL = 0x3e2
                    0x03e2                  _PG4FFPCILbits = 0x3e2
                    0x03e4                  PG4FFPCIH = 0x3e4
                    0x03e4                  _PG4FFPCIH = 0x3e4
                    0x03e4                  _PG4FFPCIHbits = 0x3e4
                    0x03e6                  PG4SPCIL = 0x3e6
                    0x03e6                  _PG4SPCIL = 0x3e6
                    0x03e6                  _PG4SPCILbits = 0x3e6
                    0x03e8                  PG4SPCIH = 0x3e8
                    0x03e8                  _PG4SPCIH = 0x3e8
                    0x03e8                  _PG4SPCIHbits = 0x3e8
                    0x03ea                  PG4LEBL = 0x3ea
                    0x03ea                  _PG4LEBL = 0x3ea
                    0x03ec                  PG4LEBH = 0x3ec
                    0x03ec                  _PG4LEBH = 0x3ec
                    0x03ec                  _PG4LEBHbits = 0x3ec
                    0x03ee                  PG4PHASE = 0x3ee
                    0x03ee                  _PG4PHASE = 0x3ee
                    0x03f0                  PG4DC = 0x3f0
                    0x03f0                  _PG4DC = 0x3f0
                    0x03f2                  PG4DCA = 0x3f2
                    0x03f2                  _PG4DCA = 0x3f2
                    0x03f2                  _PG4DCAbits = 0x3f2
                    0x03f4                  PG4PER = 0x3f4
                    0x03f4                  _PG4PER = 0x3f4
                    0x03f6                  PG4TRIGA = 0x3f6
                    0x03f6                  _PG4TRIGA = 0x3f6
                    0x03f8                  PG4TRIGB = 0x3f8
                    0x03f8                  _PG4TRIGB = 0x3f8
                    0x03fa                  PG4TRIGC = 0x3fa
                    0x03fa                  _PG4TRIGC = 0x3fa
                    0x03fc                  PG4DTL = 0x3fc
                    0x03fc                  _PG4DTL = 0x3fc
                    0x03fc                  _PG4DTLbits = 0x3fc
                    0x03fe                  PG4DTH = 0x3fe
                    0x03fe                  _PG4DTH = 0x3fe
                    0x03fe                  _PG4DTHbits = 0x3fe
                    0x0400                  PG4CAP = 0x400
                    0x0400                  _PG4CAP = 0x400
                    0x0800                  IFS0 = 0x800
                    0x0800                  _IFS0 = 0x800
                    0x0800                  _IFS0bits = 0x800
                    0x0802                  IFS1 = 0x802
                    0x0802                  _IFS1 = 0x802
                    0x0802                  _IFS1bits = 0x802
                    0x0804                  IFS2 = 0x804
                    0x0804                  _IFS2 = 0x804
                    0x0804                  _IFS2bits = 0x804
                    0x0806                  IFS3 = 0x806
                    0x0806                  _IFS3 = 0x806
                    0x0806                  _IFS3bits = 0x806
                    0x0808                  IFS4 = 0x808
                    0x0808                  _IFS4 = 0x808
                    0x0808                  _IFS4bits = 0x808
                    0x080a                  IFS5 = 0x80a
                    0x080a                  _IFS5 = 0x80a
                    0x080a                  _IFS5bits = 0x80a
                    0x080c                  IFS6 = 0x80c
                    0x080c                  _IFS6 = 0x80c
                    0x080c                  _IFS6bits = 0x80c
                    0x080e                  IFS7 = 0x80e
                    0x080e                  _IFS7 = 0x80e
                    0x080e                  _IFS7bits = 0x80e
                    0x0814                  IFS10 = 0x814
                    0x0814                  _IFS10 = 0x814
                    0x0814                  _IFS10bits = 0x814
                    0x0816                  IFS11 = 0x816
                    0x0816                  _IFS11 = 0x816
                    0x0816                  _IFS11bits = 0x816
                    0x0820                  IEC0 = 0x820
                    0x0820                  _IEC0 = 0x820
                    0x0820                  _IEC0bits = 0x820
                    0x0822                  IEC1 = 0x822
                    0x0822                  _IEC1 = 0x822
                    0x0822                  _IEC1bits = 0x822
                    0x0824                  IEC2 = 0x824
                    0x0824                  _IEC2 = 0x824
                    0x0824                  _IEC2bits = 0x824
                    0x0826                  IEC3 = 0x826
                    0x0826                  _IEC3 = 0x826
                    0x0826                  _IEC3bits = 0x826
                    0x0828                  IEC4 = 0x828
                    0x0828                  _IEC4 = 0x828
                    0x0828                  _IEC4bits = 0x828
                    0x082a                  IEC5 = 0x82a
                    0x082a                  _IEC5 = 0x82a
                    0x082a                  _IEC5bits = 0x82a
                    0x082c                  IEC6 = 0x82c
                    0x082c                  _IEC6 = 0x82c
                    0x082c                  _IEC6bits = 0x82c
                    0x082e                  IEC7 = 0x82e
                    0x082e                  _IEC7 = 0x82e
                    0x082e                  _IEC7bits = 0x82e
                    0x0834                  IEC10 = 0x834
                    0x0834                  _IEC10 = 0x834
                    0x0834                  _IEC10bits = 0x834
                    0x0836                  IEC11 = 0x836
                    0x0836                  _IEC11 = 0x836
                    0x0836                  _IEC11bits = 0x836
                    0x0840                  IPC0 = 0x840
                    0x0840                  _IPC0 = 0x840
                    0x0840                  _IPC0bits = 0x840
                    0x0842                  IPC1 = 0x842
                    0x0842                  _IPC1 = 0x842
                    0x0842                  _IPC1bits = 0x842
                    0x0844                  IPC2 = 0x844
                    0x0844                  _IPC2 = 0x844
                    0x0844                  _IPC2bits = 0x844
                    0x0846                  IPC3 = 0x846
                    0x0846                  _IPC3 = 0x846
                    0x0846                  _IPC3bits = 0x846
                    0x0848                  IPC4 = 0x848
                    0x0848                  _IPC4 = 0x848
                    0x0848                  _IPC4bits = 0x848
                    0x084a                  IPC5 = 0x84a
                    0x084a                  _IPC5 = 0x84a
                    0x084a                  _IPC5bits = 0x84a
                    0x084c                  IPC6 = 0x84c
                    0x084c                  _IPC6 = 0x84c
                    0x084c                  _IPC6bits = 0x84c
                    0x084e                  IPC7 = 0x84e
                    0x084e                  _IPC7 = 0x84e
                    0x084e                  _IPC7bits = 0x84e
                    0x0850                  IPC8 = 0x850
                    0x0850                  _IPC8 = 0x850
                    0x0850                  _IPC8bits = 0x850
                    0x0852                  IPC9 = 0x852
                    0x0852                  _IPC9 = 0x852
                    0x0852                  _IPC9bits = 0x852
                    0x0854                  IPC10 = 0x854
                    0x0854                  _IPC10 = 0x854
                    0x0854                  _IPC10bits = 0x854
                    0x0856                  IPC11 = 0x856
                    0x0856                  _IPC11 = 0x856
                    0x0856                  _IPC11bits = 0x856
                    0x0858                  IPC12 = 0x858
                    0x0858                  _IPC12 = 0x858
                    0x0858                  _IPC12bits = 0x858
                    0x085c                  IPC14 = 0x85c
                    0x085c                  _IPC14 = 0x85c
                    0x085c                  _IPC14bits = 0x85c
                    0x085e                  IPC15 = 0x85e
                    0x085e                  _IPC15 = 0x85e
                    0x085e                  _IPC15bits = 0x85e
                    0x0860                  IPC16 = 0x860
                    0x0860                  _IPC16 = 0x860
                    0x0860                  _IPC16bits = 0x860
                    0x0862                  IPC17 = 0x862
                    0x0862                  _IPC17 = 0x862
                    0x0862                  _IPC17bits = 0x862
                    0x0864                  IPC18 = 0x864
                    0x0864                  _IPC18 = 0x864
                    0x0864                  _IPC18bits = 0x864
                    0x0866                  IPC19 = 0x866
                    0x0866                  _IPC19 = 0x866
                    0x0866                  _IPC19bits = 0x866
                    0x0868                  IPC20 = 0x868
                    0x0868                  _IPC20 = 0x868
                    0x0868                  _IPC20bits = 0x868
                    0x086a                  IPC21 = 0x86a
                    0x086a                  _IPC21 = 0x86a
                    0x086a                  _IPC21bits = 0x86a
                    0x086c                  IPC22 = 0x86c
                    0x086c                  _IPC22 = 0x86c
                    0x086c                  _IPC22bits = 0x86c
                    0x086e                  IPC23 = 0x86e
                    0x086e                  _IPC23 = 0x86e
                    0x086e                  _IPC23bits = 0x86e
                    0x0870                  IPC24 = 0x870
                    0x0870                  _IPC24 = 0x870
                    0x0870                  _IPC24bits = 0x870
                    0x0872                  IPC25 = 0x872
                    0x0872                  _IPC25 = 0x872
                    0x0872                  _IPC25bits = 0x872
                    0x0874                  IPC26 = 0x874
                    0x0874                  _IPC26 = 0x874
                    0x0874                  _IPC26bits = 0x874
                    0x0876                  IPC27 = 0x876
                    0x0876                  _IPC27 = 0x876
                    0x0876                  _IPC27bits = 0x876
                    0x0878                  IPC28 = 0x878
                    0x0878                  _IPC28 = 0x878
                    0x0878                  _IPC28bits = 0x878
                    0x087a                  IPC29 = 0x87a
                    0x087a                  _IPC29 = 0x87a
                    0x087a                  _IPC29bits = 0x87a
                    0x087c                  IPC30 = 0x87c
                    0x087c                  _IPC30 = 0x87c
                    0x087c                  _IPC30bits = 0x87c
                    0x087e                  IPC31 = 0x87e
                    0x087e                  _IPC31 = 0x87e
                    0x087e                  _IPC31bits = 0x87e
                    0x0894                  IPC42 = 0x894
                    0x0894                  _IPC42 = 0x894
                    0x0894                  _IPC42bits = 0x894
                    0x0896                  IPC43 = 0x896
                    0x0896                  _IPC43 = 0x896
                    0x0896                  _IPC43bits = 0x896
                    0x0898                  IPC44 = 0x898
                    0x0898                  _IPC44 = 0x898
                    0x0898                  _IPC44bits = 0x898
                    0x089a                  IPC45 = 0x89a
                    0x089a                  _IPC45 = 0x89a
                    0x089a                  _IPC45bits = 0x89a
                    0x089e                  IPC47 = 0x89e
                    0x089e                  _IPC47 = 0x89e
                    0x089e                  _IPC47bits = 0x89e
                    0x08c0                  INTCON1 = 0x8c0
                    0x08c0                  _INTCON1 = 0x8c0
                    0x08c0                  _INTCON1bits = 0x8c0
                    0x08c2                  INTCON2 = 0x8c2
                    0x08c2                  _INTCON2 = 0x8c2
                    0x08c2                  _INTCON2bits = 0x8c2
                    0x08c4                  INTCON3 = 0x8c4
                    0x08c4                  _INTCON3 = 0x8c4
                    0x08c4                  _INTCON3bits = 0x8c4
                    0x08c6                  INTCON4 = 0x8c6
                    0x08c6                  _INTCON4 = 0x8c6
                    0x08c6                  _INTCON4bits = 0x8c6
                    0x08c8                  INTTREG = 0x8c8
                    0x08c8                  _INTTREG = 0x8c8
                    0x08c8                  _INTTREGbits = 0x8c8
                    0x08d0                  NVMCON = 0x8d0
                    0x08d0                  _NVMCON = 0x8d0
                    0x08d0                  _NVMCONbits = 0x8d0
                    0x08d2                  NVMADR = 0x8d2
                    0x08d2                  _NVMADR = 0x8d2
                    0x08d2                  _NVMADRbits = 0x8d2
                    0x08d2                  NVMADRL = 0x8d2
                    0x08d2                  _NVMADRL = 0x8d2
                    0x08d2                  _NVMADRLbits = 0x8d2
                    0x08d4                  NVMADRH = 0x8d4
                    0x08d4                  _NVMADRH = 0x8d4
                    0x08d4                  _NVMADRHbits = 0x8d4
                    0x08d4                  NVMADRU = 0x8d4
                    0x08d4                  _NVMADRU = 0x8d4
                    0x08d4                  _NVMADRUbits = 0x8d4
                    0x08d6                  NVMKEY = 0x8d6
                    0x08d6                  _NVMKEY = 0x8d6
                    0x08d8                  NVMSRCADDR = 0x8d8
                    0x08d8                  _NVMSRCADDR = 0x8d8
                    0x08d8                  _NVMSRCADDRbits = 0x8d8
                    0x08d8                  NVMSRCADR = 0x8d8
                    0x08d8                  _NVMSRCADR = 0x8d8
                    0x08d8                  _NVMSRCADRbits = 0x8d8
                    0x08d8                  NVMSRCADRL = 0x8d8
                    0x08d8                  _NVMSRCADRL = 0x8d8
                    0x08d8                  _NVMSRCADRLbits = 0x8d8
                    0x08da                  NVMSRCADRH = 0x8da
                    0x08da                  _NVMSRCADRH = 0x8da
                    0x08da                  _NVMSRCADRHbits = 0x8da
                    0x08dc                  AMPCON1L = 0x8dc
                    0x08dc                  _AMPCON1L = 0x8dc
                    0x08dc                  _AMPCON1Lbits = 0x8dc
                    0x08de                  AMPCON1H = 0x8de
                    0x08de                  _AMPCON1H = 0x8de
                    0x08de                  _AMPCON1Hbits = 0x8de
                    0x08f0                  BIASCON = 0x8f0
                    0x08f0                  _BIASCON = 0x8f0
                    0x08f0                  _BIASCONbits = 0x8f0
                    0x08f4                  IBIASCONL = 0x8f4
                    0x08f4                  _IBIASCONL = 0x8f4
                    0x08f4                  _IBIASCONLbits = 0x8f4
                    0x08f6                  IBIASCONH = 0x8f6
                    0x08f6                  _IBIASCONH = 0x8f6
                    0x08f6                  _IBIASCONHbits = 0x8f6
                    0x0900                  PTGCST = 0x900
                    0x0900                  _PTGCST = 0x900
                    0x0900                  _PTGCSTbits = 0x900
                    0x0902                  PTGCON = 0x902
                    0x0902                  _PTGCON = 0x902
                    0x0902                  _PTGCONbits = 0x902
                    0x0904                  PTGBTE = 0x904
                    0x0904                  _PTGBTE = 0x904
                    0x0904                  _PTGBTEbits = 0x904
                    0x0906                  PTGBTEH = 0x906
                    0x0906                  _PTGBTEH = 0x906
                    0x0906                  _PTGBTEHbits = 0x906
                    0x0908                  PTGHOLD = 0x908
                    0x0908                  _PTGHOLD = 0x908
                    0x090c                  PTGT0LIM = 0x90c
                    0x090c                  _PTGT0LIM = 0x90c
                    0x0910                  PTGT1LIM = 0x910
                    0x0910                  _PTGT1LIM = 0x910
                    0x0914                  PTGSDLIM = 0x914
                    0x0914                  _PTGSDLIM = 0x914
                    0x0918                  PTGC0LIM = 0x918
                    0x0918                  _PTGC0LIM = 0x918
                    0x091c                  PTGC1LIM = 0x91c
                    0x091c                  _PTGC1LIM = 0x91c
                    0x0920                  PTGADJ = 0x920
                    0x0920                  _PTGADJ = 0x920
                    0x0924                  PTGL0 = 0x924
                    0x0924                  _PTGL0 = 0x924
                    0x0928                  PTGQPTR = 0x928
                    0x0928                  _PTGQPTR = 0x928
                    0x0928                  _PTGQPTRbits = 0x928
                    0x0930                  PTGQUE0 = 0x930
                    0x0930                  _PTGQUE0 = 0x930
                    0x0930                  _PTGQUE0bits = 0x930
                    0x0932                  PTGQUE1 = 0x932
                    0x0932                  _PTGQUE1 = 0x932
                    0x0932                  _PTGQUE1bits = 0x932
                    0x0934                  PTGQUE2 = 0x934
                    0x0934                  _PTGQUE2 = 0x934
                    0x0934                  _PTGQUE2bits = 0x934
                    0x0936                  PTGQUE3 = 0x936
                    0x0936                  _PTGQUE3 = 0x936
                    0x0936                  _PTGQUE3bits = 0x936
                    0x0938                  PTGQUE4 = 0x938
                    0x0938                  _PTGQUE4 = 0x938
                    0x0938                  _PTGQUE4bits = 0x938
                    0x093a                  PTGQUE5 = 0x93a
                    0x093a                  _PTGQUE5 = 0x93a
                    0x093a                  _PTGQUE5bits = 0x93a
                    0x093c                  PTGQUE6 = 0x93c
                    0x093c                  _PTGQUE6 = 0x93c
                    0x093c                  _PTGQUE6bits = 0x93c
                    0x093e                  PTGQUE7 = 0x93e
                    0x093e                  _PTGQUE7 = 0x93e
                    0x093e                  _PTGQUE7bits = 0x93e
                    0x0940                  PTGQUE8 = 0x940
                    0x0940                  _PTGQUE8 = 0x940
                    0x0940                  _PTGQUE8bits = 0x940
                    0x0942                  PTGQUE9 = 0x942
                    0x0942                  _PTGQUE9 = 0x942
                    0x0942                  _PTGQUE9bits = 0x942
                    0x0944                  PTGQUE10 = 0x944
                    0x0944                  _PTGQUE10 = 0x944
                    0x0944                  _PTGQUE10bits = 0x944
                    0x0946                  PTGQUE11 = 0x946
                    0x0946                  _PTGQUE11 = 0x946
                    0x0946                  _PTGQUE11bits = 0x946
                    0x0948                  PTGQUE12 = 0x948
                    0x0948                  _PTGQUE12 = 0x948
                    0x0948                  _PTGQUE12bits = 0x948
                    0x094a                  PTGQUE13 = 0x94a
                    0x094a                  _PTGQUE13 = 0x94a
                    0x094a                  _PTGQUE13bits = 0x94a
                    0x094c                  PTGQUE14 = 0x94c
                    0x094c                  _PTGQUE14 = 0x94c
                    0x094c                  _PTGQUE14bits = 0x94c
                    0x094e                  PTGQUE15 = 0x94e
                    0x094e                  _PTGQUE15 = 0x94e
                    0x094e                  _PTGQUE15bits = 0x94e
                    0x0950                  CCP1CON1L = 0x950
                    0x0950                  _CCP1CON1L = 0x950
                    0x0950                  _CCP1CON1Lbits = 0x950
                    0x0952                  CCP1CON1H = 0x952
                    0x0952                  _CCP1CON1H = 0x952
                    0x0952                  _CCP1CON1Hbits = 0x952
                    0x0954                  CCP1CON2L = 0x954
                    0x0954                  _CCP1CON2L = 0x954
                    0x0954                  _CCP1CON2Lbits = 0x954
                    0x0956                  CCP1CON2H = 0x956
                    0x0956                  _CCP1CON2H = 0x956
                    0x0956                  _CCP1CON2Hbits = 0x956
                    0x095a                  CCP1CON3H = 0x95a
                    0x095a                  _CCP1CON3H = 0x95a
                    0x095a                  _CCP1CON3Hbits = 0x95a
                    0x095c                  CCP1STAT = 0x95c
                    0x095c                  _CCP1STAT = 0x95c
                    0x095c                  _CCP1STATbits = 0x95c
                    0x095c                  CCP1STATL = 0x95c
                    0x095c                  _CCP1STATL = 0x95c
                    0x095c                  _CCP1STATLbits = 0x95c
                    0x095e                  CCP1STATH = 0x95e
                    0x095e                  _CCP1STATH = 0x95e
                    0x095e                  _CCP1STATHbits = 0x95e
                    0x0960                  CCP1TMRL = 0x960
                    0x0960                  _CCP1TMRL = 0x960
                    0x0962                  CCP1TMRH = 0x962
                    0x0962                  _CCP1TMRH = 0x962
                    0x0964                  CCP1PRL = 0x964
                    0x0964                  _CCP1PRL = 0x964
                    0x0966                  CCP1PRH = 0x966
                    0x0966                  _CCP1PRH = 0x966
                    0x0968                  CCP1RA = 0x968
                    0x0968                  _CCP1RA = 0x968
                    0x0968                  CCP1RAL = 0x968
                    0x0968                  _CCP1RAL = 0x968
                    0x096c                  CCP1RB = 0x96c
                    0x096c                  _CCP1RB = 0x96c
                    0x096c                  CCP1RBL = 0x96c
                    0x096c                  _CCP1RBL = 0x96c
                    0x0970                  CCP1BUFL = 0x970
                    0x0970                  _CCP1BUFL = 0x970
                    0x0972                  CCP1BUFH = 0x972
                    0x0972                  _CCP1BUFH = 0x972
                    0x0974                  CCP2CON1L = 0x974
                    0x0974                  _CCP2CON1L = 0x974
                    0x0974                  _CCP2CON1Lbits = 0x974
                    0x0976                  CCP2CON1H = 0x976
                    0x0976                  _CCP2CON1H = 0x976
                    0x0976                  _CCP2CON1Hbits = 0x976
                    0x0978                  CCP2CON2L = 0x978
                    0x0978                  _CCP2CON2L = 0x978
                    0x0978                  _CCP2CON2Lbits = 0x978
                    0x097a                  CCP2CON2H = 0x97a
                    0x097a                  _CCP2CON2H = 0x97a
                    0x097a                  _CCP2CON2Hbits = 0x97a
                    0x097e                  CCP2CON3H = 0x97e
                    0x097e                  _CCP2CON3H = 0x97e
                    0x097e                  _CCP2CON3Hbits = 0x97e
                    0x0980                  CCP2STAT = 0x980
                    0x0980                  _CCP2STAT = 0x980
                    0x0980                  _CCP2STATbits = 0x980
                    0x0980                  CCP2STATL = 0x980
                    0x0980                  _CCP2STATL = 0x980
                    0x0980                  _CCP2STATLbits = 0x980
                    0x0982                  CCP2STATH = 0x982
                    0x0982                  _CCP2STATH = 0x982
                    0x0982                  _CCP2STATHbits = 0x982
                    0x0984                  CCP2TMRL = 0x984
                    0x0984                  _CCP2TMRL = 0x984
                    0x0986                  CCP2TMRH = 0x986
                    0x0986                  _CCP2TMRH = 0x986
                    0x0988                  CCP2PRL = 0x988
                    0x0988                  _CCP2PRL = 0x988
                    0x098a                  CCP2PRH = 0x98a
                    0x098a                  _CCP2PRH = 0x98a
                    0x098c                  CCP2RA = 0x98c
                    0x098c                  _CCP2RA = 0x98c
                    0x098c                  CCP2RAL = 0x98c
                    0x098c                  _CCP2RAL = 0x98c
                    0x0990                  CCP2RB = 0x990
                    0x0990                  _CCP2RB = 0x990
                    0x0990                  CCP2RBL = 0x990
                    0x0990                  _CCP2RBL = 0x990
                    0x0994                  CCP2BUFL = 0x994
                    0x0994                  _CCP2BUFL = 0x994
                    0x0996                  CCP2BUFH = 0x996
                    0x0996                  _CCP2BUFH = 0x996
                    0x0998                  CCP3CON1L = 0x998
                    0x0998                  _CCP3CON1L = 0x998
                    0x0998                  _CCP3CON1Lbits = 0x998
                    0x099a                  CCP3CON1H = 0x99a
                    0x099a                  _CCP3CON1H = 0x99a
                    0x099a                  _CCP3CON1Hbits = 0x99a
                    0x099c                  CCP3CON2L = 0x99c
                    0x099c                  _CCP3CON2L = 0x99c
                    0x099c                  _CCP3CON2Lbits = 0x99c
                    0x099e                  CCP3CON2H = 0x99e
                    0x099e                  _CCP3CON2H = 0x99e
                    0x099e                  _CCP3CON2Hbits = 0x99e
                    0x09a2                  CCP3CON3H = 0x9a2
                    0x09a2                  _CCP3CON3H = 0x9a2
                    0x09a2                  _CCP3CON3Hbits = 0x9a2
                    0x09a4                  CCP3STAT = 0x9a4
                    0x09a4                  _CCP3STAT = 0x9a4
                    0x09a4                  _CCP3STATbits = 0x9a4
                    0x09a4                  CCP3STATL = 0x9a4
                    0x09a4                  _CCP3STATL = 0x9a4
                    0x09a4                  _CCP3STATLbits = 0x9a4
                    0x09a6                  CCP3STATH = 0x9a6
                    0x09a6                  _CCP3STATH = 0x9a6
                    0x09a6                  _CCP3STATHbits = 0x9a6
                    0x09a8                  CCP3TMRL = 0x9a8
                    0x09a8                  _CCP3TMRL = 0x9a8
                    0x09aa                  CCP3TMRH = 0x9aa
                    0x09aa                  _CCP3TMRH = 0x9aa
                    0x09ac                  CCP3PRL = 0x9ac
                    0x09ac                  _CCP3PRL = 0x9ac
                    0x09ae                  CCP3PRH = 0x9ae
                    0x09ae                  _CCP3PRH = 0x9ae
                    0x09b0                  CCP3RA = 0x9b0
                    0x09b0                  _CCP3RA = 0x9b0
                    0x09b0                  CCP3RAL = 0x9b0
                    0x09b0                  _CCP3RAL = 0x9b0
                    0x09b4                  CCP3RB = 0x9b4
                    0x09b4                  _CCP3RB = 0x9b4
                    0x09b4                  CCP3RBL = 0x9b4
                    0x09b4                  _CCP3RBL = 0x9b4
                    0x09b8                  CCP3BUFL = 0x9b8
                    0x09b8                  _CCP3BUFL = 0x9b8
                    0x09ba                  CCP3BUFH = 0x9ba
                    0x09ba                  _CCP3BUFH = 0x9ba
                    0x09bc                  CCP4CON1L = 0x9bc
                    0x09bc                  _CCP4CON1L = 0x9bc
                    0x09bc                  _CCP4CON1Lbits = 0x9bc
                    0x09be                  CCP4CON1H = 0x9be
                    0x09be                  _CCP4CON1H = 0x9be
                    0x09be                  _CCP4CON1Hbits = 0x9be
                    0x09c0                  CCP4CON2L = 0x9c0
                    0x09c0                  _CCP4CON2L = 0x9c0
                    0x09c0                  _CCP4CON2Lbits = 0x9c0
                    0x09c2                  CCP4CON2H = 0x9c2
                    0x09c2                  _CCP4CON2H = 0x9c2
                    0x09c2                  _CCP4CON2Hbits = 0x9c2
                    0x09c6                  CCP4CON3H = 0x9c6
                    0x09c6                  _CCP4CON3H = 0x9c6
                    0x09c6                  _CCP4CON3Hbits = 0x9c6
                    0x09c8                  CCP4STAT = 0x9c8
                    0x09c8                  _CCP4STAT = 0x9c8
                    0x09c8                  _CCP4STATbits = 0x9c8
                    0x09c8                  CCP4STATL = 0x9c8
                    0x09c8                  _CCP4STATL = 0x9c8
                    0x09c8                  _CCP4STATLbits = 0x9c8
                    0x09ca                  CCP4STATH = 0x9ca
                    0x09ca                  _CCP4STATH = 0x9ca
                    0x09ca                  _CCP4STATHbits = 0x9ca
                    0x09cc                  CCP4TMRL = 0x9cc
                    0x09cc                  _CCP4TMRL = 0x9cc
                    0x09ce                  CCP4TMRH = 0x9ce
                    0x09ce                  _CCP4TMRH = 0x9ce
                    0x09d0                  CCP4PRL = 0x9d0
                    0x09d0                  _CCP4PRL = 0x9d0
                    0x09d2                  CCP4PRH = 0x9d2
                    0x09d2                  _CCP4PRH = 0x9d2
                    0x09d4                  CCP4RA = 0x9d4
                    0x09d4                  _CCP4RA = 0x9d4
                    0x09d4                  CCP4RAL = 0x9d4
                    0x09d4                  _CCP4RAL = 0x9d4
                    0x09d8                  CCP4RB = 0x9d8
                    0x09d8                  _CCP4RB = 0x9d8
                    0x09d8                  CCP4RBL = 0x9d8
                    0x09d8                  _CCP4RBL = 0x9d8
                    0x09dc                  CCP4BUFL = 0x9dc
                    0x09dc                  _CCP4BUFL = 0x9dc
                    0x09de                  CCP4BUFH = 0x9de
                    0x09de                  _CCP4BUFH = 0x9de
                    0x0abc                  DMACON = 0xabc
                    0x0abc                  _DMACON = 0xabc
                    0x0abc                  _DMACONbits = 0xabc
                    0x0abe                  DMABUF = 0xabe
                    0x0abe                  _DMABUF = 0xabe
                    0x0ac0                  DMAL = 0xac0
                    0x0ac0                  _DMAL = 0xac0
                    0x0ac2                  DMAH = 0xac2
                    0x0ac2                  _DMAH = 0xac2
                    0x0ac4                  DMACH0 = 0xac4
                    0x0ac4                  _DMACH0 = 0xac4
                    0x0ac4                  _DMACH0bits = 0xac4
                    0x0ac6                  DMAINT0 = 0xac6
                    0x0ac6                  _DMAINT0 = 0xac6
                    0x0ac6                  _DMAINT0bits = 0xac6
                    0x0ac8                  DMASRC0 = 0xac8
                    0x0ac8                  _DMASRC0 = 0xac8
                    0x0aca                  DMADST0 = 0xaca
                    0x0aca                  _DMADST0 = 0xaca
                    0x0acc                  DMACNT0 = 0xacc
                    0x0acc                  _DMACNT0 = 0xacc
                    0x0ace                  DMACH1 = 0xace
                    0x0ace                  _DMACH1 = 0xace
                    0x0ace                  _DMACH1bits = 0xace
                    0x0ad0                  DMAINT1 = 0xad0
                    0x0ad0                  _DMAINT1 = 0xad0
                    0x0ad0                  _DMAINT1bits = 0xad0
                    0x0ad2                  DMASRC1 = 0xad2
                    0x0ad2                  _DMASRC1 = 0xad2
                    0x0ad4                  DMADST1 = 0xad4
                    0x0ad4                  _DMADST1 = 0xad4
                    0x0ad6                  DMACNT1 = 0xad6
                    0x0ad6                  _DMACNT1 = 0xad6
                    0x0ad8                  DMACH2 = 0xad8
                    0x0ad8                  _DMACH2 = 0xad8
                    0x0ad8                  _DMACH2bits = 0xad8
                    0x0ada                  DMAINT2 = 0xada
                    0x0ada                  _DMAINT2 = 0xada
                    0x0ada                  _DMAINT2bits = 0xada
                    0x0adc                  DMASRC2 = 0xadc
                    0x0adc                  _DMASRC2 = 0xadc
                    0x0ade                  DMADST2 = 0xade
                    0x0ade                  _DMADST2 = 0xade
                    0x0ae0                  DMACNT2 = 0xae0
                    0x0ae0                  _DMACNT2 = 0xae0
                    0x0ae2                  DMACH3 = 0xae2
                    0x0ae2                  _DMACH3 = 0xae2
                    0x0ae2                  _DMACH3bits = 0xae2
                    0x0ae4                  DMAINT3 = 0xae4
                    0x0ae4                  _DMAINT3 = 0xae4
                    0x0ae4                  _DMAINT3bits = 0xae4
                    0x0ae6                  DMASRC3 = 0xae6
                    0x0ae6                  _DMASRC3 = 0xae6
                    0x0ae8                  DMADST3 = 0xae8
                    0x0ae8                  _DMADST3 = 0xae8
                    0x0aea                  DMACNT3 = 0xaea
                    0x0aea                  _DMACNT3 = 0xaea
                    0x0b00                  ADCON1L = 0xb00
                    0x0b00                  _ADCON1L = 0xb00
                    0x0b00                  _ADCON1Lbits = 0xb00
                    0x0b02                  ADCON1H = 0xb02
                    0x0b02                  _ADCON1H = 0xb02
                    0x0b02                  _ADCON1Hbits = 0xb02
                    0x0b04                  ADCON2L = 0xb04
                    0x0b04                  _ADCON2L = 0xb04
                    0x0b04                  _ADCON2Lbits = 0xb04
                    0x0b06                  ADCON2H = 0xb06
                    0x0b06                  _ADCON2H = 0xb06
                    0x0b06                  _ADCON2Hbits = 0xb06
                    0x0b08                  ADCON3L = 0xb08
                    0x0b08                  _ADCON3L = 0xb08
                    0x0b08                  _ADCON3Lbits = 0xb08
                    0x0b0a                  ADCON3H = 0xb0a
                    0x0b0a                  _ADCON3H = 0xb0a
                    0x0b0a                  _ADCON3Hbits = 0xb0a
                    0x0b10                  ADMOD0L = 0xb10
                    0x0b10                  _ADMOD0L = 0xb10
                    0x0b10                  _ADMOD0Lbits = 0xb10
                    0x0b12                  ADMOD0H = 0xb12
                    0x0b12                  _ADMOD0H = 0xb12
                    0x0b12                  _ADMOD0Hbits = 0xb12
                    0x0b14                  ADMOD1L = 0xb14
                    0x0b14                  _ADMOD1L = 0xb14
                    0x0b14                  _ADMOD1Lbits = 0xb14
                    0x0b20                  ADIEL = 0xb20
                    0x0b20                  _ADIEL = 0xb20
                    0x0b20                  _ADIELbits = 0xb20
                    0x0b22                  ADIEH = 0xb22
                    0x0b22                  _ADIEH = 0xb22
                    0x0b22                  _ADIEHbits = 0xb22
                    0x0b28                  ADCSSL = 0xb28
                    0x0b28                  _ADCSSL = 0xb28
                    0x0b28                  _ADCSSLbits = 0xb28
                    0x0b2a                  ADCSSH = 0xb2a
                    0x0b2a                  _ADCSSH = 0xb2a
                    0x0b2a                  _ADCSSHbits = 0xb2a
                    0x0b30                  ADSTATL = 0xb30
                    0x0b30                  _ADSTATL = 0xb30
                    0x0b30                  _ADSTATLbits = 0xb30
                    0x0b32                  ADSTATH = 0xb32
                    0x0b32                  _ADSTATH = 0xb32
                    0x0b32                  _ADSTATHbits = 0xb32
                    0x0b38                  ADCMP0ENL = 0xb38
                    0x0b38                  _ADCMP0ENL = 0xb38
                    0x0b38                  _ADCMP0ENLbits = 0xb38
                    0x0b3a                  ADCMP0ENH = 0xb3a
                    0x0b3a                  _ADCMP0ENH = 0xb3a
                    0x0b3a                  _ADCMP0ENHbits = 0xb3a
                    0x0b3c                  ADCMP0LO = 0xb3c
                    0x0b3c                  _ADCMP0LO = 0xb3c
                    0x0b3e                  ADCMP0HI = 0xb3e
                    0x0b3e                  _ADCMP0HI = 0xb3e
                    0x0b40                  ADCMP1ENL = 0xb40
                    0x0b40                  _ADCMP1ENL = 0xb40
                    0x0b40                  _ADCMP1ENLbits = 0xb40
                    0x0b42                  ADCMP1ENH = 0xb42
                    0x0b42                  _ADCMP1ENH = 0xb42
                    0x0b42                  _ADCMP1ENHbits = 0xb42
                    0x0b44                  ADCMP1LO = 0xb44
                    0x0b44                  _ADCMP1LO = 0xb44
                    0x0b46                  ADCMP1HI = 0xb46
                    0x0b46                  _ADCMP1HI = 0xb46
                    0x0b48                  ADCMP2ENL = 0xb48
                    0x0b48                  _ADCMP2ENL = 0xb48
                    0x0b48                  _ADCMP2ENLbits = 0xb48
                    0x0b4a                  ADCMP2ENH = 0xb4a
                    0x0b4a                  _ADCMP2ENH = 0xb4a
                    0x0b4a                  _ADCMP2ENHbits = 0xb4a
                    0x0b4c                  ADCMP2LO = 0xb4c
                    0x0b4c                  _ADCMP2LO = 0xb4c
                    0x0b4e                  ADCMP2HI = 0xb4e
                    0x0b4e                  _ADCMP2HI = 0xb4e
                    0x0b50                  ADCMP3ENL = 0xb50
                    0x0b50                  _ADCMP3ENL = 0xb50
                    0x0b50                  _ADCMP3ENLbits = 0xb50
                    0x0b52                  ADCMP3ENH = 0xb52
                    0x0b52                  _ADCMP3ENH = 0xb52
                    0x0b52                  _ADCMP3ENHbits = 0xb52
                    0x0b54                  ADCMP3LO = 0xb54
                    0x0b54                  _ADCMP3LO = 0xb54
                    0x0b56                  ADCMP3HI = 0xb56
                    0x0b56                  _ADCMP3HI = 0xb56
                    0x0b68                  ADFL0DAT = 0xb68
                    0x0b68                  _ADFL0DAT = 0xb68
                    0x0b6a                  ADFL0CON = 0xb6a
                    0x0b6a                  _ADFL0CON = 0xb6a
                    0x0b6a                  _ADFL0CONbits = 0xb6a
                    0x0b6c                  ADFL1DAT = 0xb6c
                    0x0b6c                  _ADFL1DAT = 0xb6c
                    0x0b6e                  ADFL1CON = 0xb6e
                    0x0b6e                  _ADFL1CON = 0xb6e
                    0x0b6e                  _ADFL1CONbits = 0xb6e
                    0x0b70                  ADFL2DAT = 0xb70
                    0x0b70                  _ADFL2DAT = 0xb70
                    0x0b72                  ADFL2CON = 0xb72
                    0x0b72                  _ADFL2CON = 0xb72
                    0x0b72                  _ADFL2CONbits = 0xb72
                    0x0b74                  ADFL3DAT = 0xb74
                    0x0b74                  _ADFL3DAT = 0xb74
                    0x0b76                  ADFL3CON = 0xb76
                    0x0b76                  _ADFL3CON = 0xb76
                    0x0b76                  _ADFL3CONbits = 0xb76
                    0x0b80                  ADTRIG0L = 0xb80
                    0x0b80                  _ADTRIG0L = 0xb80
                    0x0b80                  _ADTRIG0Lbits = 0xb80
                    0x0b82                  ADTRIG0H = 0xb82
                    0x0b82                  _ADTRIG0H = 0xb82
                    0x0b82                  _ADTRIG0Hbits = 0xb82
                    0x0b84                  ADTRIG1L = 0xb84
                    0x0b84                  _ADTRIG1L = 0xb84
                    0x0b84                  _ADTRIG1Lbits = 0xb84
                    0x0b86                  ADTRIG1H = 0xb86
                    0x0b86                  _ADTRIG1H = 0xb86
                    0x0b86                  _ADTRIG1Hbits = 0xb86
                    0x0b88                  ADTRIG2L = 0xb88
                    0x0b88                  _ADTRIG2L = 0xb88
                    0x0b88                  _ADTRIG2Lbits = 0xb88
                    0x0b8a                  ADTRIG2H = 0xb8a
                    0x0b8a                  _ADTRIG2H = 0xb8a
                    0x0b8a                  _ADTRIG2Hbits = 0xb8a
                    0x0b8c                  ADTRIG3L = 0xb8c
                    0x0b8c                  _ADTRIG3L = 0xb8c
                    0x0b8c                  _ADTRIG3Lbits = 0xb8c
                    0x0b8e                  ADTRIG3H = 0xb8e
                    0x0b8e                  _ADTRIG3H = 0xb8e
                    0x0b8e                  _ADTRIG3Hbits = 0xb8e
                    0x0b90                  ADTRIG4L = 0xb90
                    0x0b90                  _ADTRIG4L = 0xb90
                    0x0b90                  _ADTRIG4Lbits = 0xb90
                    0x0ba0                  ADCMP0CON = 0xba0
                    0x0ba0                  _ADCMP0CON = 0xba0
                    0x0ba0                  _ADCMP0CONbits = 0xba0
                    0x0ba4                  ADCMP1CON = 0xba4
                    0x0ba4                  _ADCMP1CON = 0xba4
                    0x0ba4                  _ADCMP1CONbits = 0xba4
                    0x0ba8                  ADCMP2CON = 0xba8
                    0x0ba8                  _ADCMP2CON = 0xba8
                    0x0ba8                  _ADCMP2CONbits = 0xba8
                    0x0bac                  ADCMP3CON = 0xbac
                    0x0bac                  _ADCMP3CON = 0xbac
                    0x0bac                  _ADCMP3CONbits = 0xbac
                    0x0bd0                  ADLVLTRGL = 0xbd0
                    0x0bd0                  _ADLVLTRGL = 0xbd0
                    0x0bd0                  _ADLVLTRGLbits = 0xbd0
                    0x0bd2                  ADLVLTRGH = 0xbd2
                    0x0bd2                  _ADLVLTRGH = 0xbd2
                    0x0bd2                  _ADLVLTRGHbits = 0xbd2
                    0x0bf0                  ADEIEL = 0xbf0
                    0x0bf0                  _ADEIEL = 0xbf0
                    0x0bf0                  _ADEIELbits = 0xbf0
                    0x0bf2                  ADEIEH = 0xbf2
                    0x0bf2                  _ADEIEH = 0xbf2
                    0x0bf2                  _ADEIEHbits = 0xbf2
                    0x0bf8                  ADEISTATL = 0xbf8
                    0x0bf8                  _ADEISTATL = 0xbf8
                    0x0bf8                  _ADEISTATLbits = 0xbf8
                    0x0bfa                  ADEISTATH = 0xbfa
                    0x0bfa                  _ADEISTATH = 0xbfa
                    0x0bfa                  _ADEISTATHbits = 0xbfa
                    0x0c00                  ADCON5L = 0xc00
                    0x0c00                  _ADCON5L = 0xc00
                    0x0c00                  _ADCON5Lbits = 0xc00
                    0x0c02                  ADCON5H = 0xc02
                    0x0c02                  _ADCON5H = 0xc02
                    0x0c02                  _ADCON5Hbits = 0xc02
                    0x0c0c                  ADCBUF0 = 0xc0c
                    0x0c0c                  _ADCBUF0 = 0xc0c
                    0x0c0e                  ADCBUF1 = 0xc0e
                    0x0c0e                  _ADCBUF1 = 0xc0e
                    0x0c10                  ADCBUF2 = 0xc10
                    0x0c10                  _ADCBUF2 = 0xc10
                    0x0c12                  ADCBUF3 = 0xc12
                    0x0c12                  _ADCBUF3 = 0xc12
                    0x0c14                  ADCBUF4 = 0xc14
                    0x0c14                  _ADCBUF4 = 0xc14
                    0x0c16                  ADCBUF5 = 0xc16
                    0x0c16                  _ADCBUF5 = 0xc16
                    0x0c18                  ADCBUF6 = 0xc18
                    0x0c18                  _ADCBUF6 = 0xc18
                    0x0c1a                  ADCBUF7 = 0xc1a
                    0x0c1a                  _ADCBUF7 = 0xc1a
                    0x0c1c                  ADCBUF8 = 0xc1c
                    0x0c1c                  _ADCBUF8 = 0xc1c
                    0x0c1e                  ADCBUF9 = 0xc1e
                    0x0c1e                  _ADCBUF9 = 0xc1e
                    0x0c20                  ADCBUF10 = 0xc20
                    0x0c20                  _ADCBUF10 = 0xc20
                    0x0c22                  ADCBUF11 = 0xc22
                    0x0c22                  _ADCBUF11 = 0xc22
                    0x0c24                  ADCBUF12 = 0xc24
                    0x0c24                  _ADCBUF12 = 0xc24
                    0x0c26                  ADCBUF13 = 0xc26
                    0x0c26                  _ADCBUF13 = 0xc26
                    0x0c28                  ADCBUF14 = 0xc28
                    0x0c28                  _ADCBUF14 = 0xc28
                    0x0c2a                  ADCBUF15 = 0xc2a
                    0x0c2a                  _ADCBUF15 = 0xc2a
                    0x0c2c                  ADCBUF16 = 0xc2c
                    0x0c2c                  _ADCBUF16 = 0xc2c
                    0x0c2e                  ADCBUF17 = 0xc2e
                    0x0c2e                  _ADCBUF17 = 0xc2e
                    0x0c80                  DACCTRL1L = 0xc80
                    0x0c80                  _DACCTRL1L = 0xc80
                    0x0c80                  _DACCTRL1Lbits = 0xc80
                    0x0c84                  DACCTRL2L = 0xc84
                    0x0c84                  _DACCTRL2L = 0xc84
                    0x0c84                  _DACCTRL2Lbits = 0xc84
                    0x0c86                  DACCTRL2H = 0xc86
                    0x0c86                  _DACCTRL2H = 0xc86
                    0x0c86                  _DACCTRL2Hbits = 0xc86
                    0x0c88                  DAC1CONL = 0xc88
                    0x0c88                  _DAC1CONL = 0xc88
                    0x0c88                  _DAC1CONLbits = 0xc88
                    0x0c8a                  DAC1CONH = 0xc8a
                    0x0c8a                  _DAC1CONH = 0xc8a
                    0x0c8a                  _DAC1CONHbits = 0xc8a
                    0x0c8c                  DAC1DATL = 0xc8c
                    0x0c8c                  _DAC1DATL = 0xc8c
                    0x0c8c                  _DAC1DATLbits = 0xc8c
                    0x0c8e                  DAC1DATH = 0xc8e
                    0x0c8e                  _DAC1DATH = 0xc8e
                    0x0c8e                  _DAC1DATHbits = 0xc8e
                    0x0c90                  SLP1CONL = 0xc90
                    0x0c90                  _SLP1CONL = 0xc90
                    0x0c90                  _SLP1CONLbits = 0xc90
                    0x0c92                  SLP1CONH = 0xc92
                    0x0c92                  _SLP1CONH = 0xc92
                    0x0c92                  _SLP1CONHbits = 0xc92
                    0x0c94                  SLP1DAT = 0xc94
                    0x0c94                  _SLP1DAT = 0xc94
                    0x0c94                  _SLP1DATbits = 0xc94
                    0x0cfc                  VREGCON = 0xcfc
                    0x0cfc                  _VREGCON = 0xcfc
                    0x0cfc                  _VREGCONbits = 0xcfc
                    0x0d00                  RPCON = 0xd00
                    0x0d00                  _RPCON = 0xd00
                    0x0d00                  _RPCONbits = 0xd00
                    0x0d04                  RPINR0 = 0xd04
                    0x0d04                  _RPINR0 = 0xd04
                    0x0d04                  _RPINR0bits = 0xd04
                    0x0d06                  RPINR1 = 0xd06
                    0x0d06                  _RPINR1 = 0xd06
                    0x0d06                  _RPINR1bits = 0xd06
                    0x0d08                  RPINR2 = 0xd08
                    0x0d08                  _RPINR2 = 0xd08
                    0x0d08                  _RPINR2bits = 0xd08
                    0x0d0a                  RPINR3 = 0xd0a
                    0x0d0a                  _RPINR3 = 0xd0a
                    0x0d0a                  _RPINR3bits = 0xd0a
                    0x0d0c                  RPINR4 = 0xd0c
                    0x0d0c                  _RPINR4 = 0xd0c
                    0x0d0c                  _RPINR4bits = 0xd0c
                    0x0d0e                  RPINR5 = 0xd0e
                    0x0d0e                  _RPINR5 = 0xd0e
                    0x0d0e                  _RPINR5bits = 0xd0e
                    0x0d10                  RPINR6 = 0xd10
                    0x0d10                  _RPINR6 = 0xd10
                    0x0d10                  _RPINR6bits = 0xd10
                    0x0d1a                  RPINR11 = 0xd1a
                    0x0d1a                  _RPINR11 = 0xd1a
                    0x0d1a                  _RPINR11bits = 0xd1a
                    0x0d1c                  RPINR12 = 0xd1c
                    0x0d1c                  _RPINR12 = 0xd1c
                    0x0d1c                  _RPINR12bits = 0xd1c
                    0x0d1e                  RPINR13 = 0xd1e
                    0x0d1e                  _RPINR13 = 0xd1e
                    0x0d1e                  _RPINR13bits = 0xd1e
                    0x0d20                  RPINR14 = 0xd20
                    0x0d20                  _RPINR14 = 0xd20
                    0x0d20                  _RPINR14bits = 0xd20
                    0x0d22                  RPINR15 = 0xd22
                    0x0d22                  _RPINR15 = 0xd22
                    0x0d22                  _RPINR15bits = 0xd22
                    0x0d28                  RPINR18 = 0xd28
                    0x0d28                  _RPINR18 = 0xd28
                    0x0d28                  _RPINR18bits = 0xd28
                    0x0d2a                  RPINR19 = 0xd2a
                    0x0d2a                  _RPINR19 = 0xd2a
                    0x0d2a                  _RPINR19bits = 0xd2a
                    0x0d2c                  RPINR20 = 0xd2c
                    0x0d2c                  _RPINR20 = 0xd2c
                    0x0d2c                  _RPINR20bits = 0xd2c
                    0x0d2e                  RPINR21 = 0xd2e
                    0x0d2e                  _RPINR21 = 0xd2e
                    0x0d2e                  _RPINR21bits = 0xd2e
                    0x0d30                  RPINR22 = 0xd30
                    0x0d30                  _RPINR22 = 0xd30
                    0x0d30                  _RPINR22bits = 0xd30
                    0x0d32                  RPINR23 = 0xd32
                    0x0d32                  _RPINR23 = 0xd32
                    0x0d32                  _RPINR23bits = 0xd32
                    0x0d3a                  RPINR27 = 0xd3a
                    0x0d3a                  _RPINR27 = 0xd3a
                    0x0d3a                  _RPINR27bits = 0xd3a
                    0x0d4e                  RPINR37 = 0xd4e
                    0x0d4e                  _RPINR37 = 0xd4e
                    0x0d4e                  _RPINR37bits = 0xd4e
                    0x0d50                  RPINR38 = 0xd50
                    0x0d50                  _RPINR38 = 0xd50
                    0x0d50                  _RPINR38bits = 0xd50
                    0x0d58                  RPINR42 = 0xd58
                    0x0d58                  _RPINR42 = 0xd58
                    0x0d58                  _RPINR42bits = 0xd58
                    0x0d5a                  RPINR43 = 0xd5a
                    0x0d5a                  _RPINR43 = 0xd5a
                    0x0d5a                  _RPINR43bits = 0xd5a
                    0x0d5c                  RPINR44 = 0xd5c
                    0x0d5c                  _RPINR44 = 0xd5c
                    0x0d5c                  _RPINR44bits = 0xd5c
                    0x0d5e                  RPINR45 = 0xd5e
                    0x0d5e                  _RPINR45 = 0xd5e
                    0x0d5e                  _RPINR45bits = 0xd5e
                    0x0d60                  RPINR46 = 0xd60
                    0x0d60                  _RPINR46 = 0xd60
                    0x0d60                  _RPINR46bits = 0xd60
                    0x0d62                  RPINR47 = 0xd62
                    0x0d62                  _RPINR47 = 0xd62
                    0x0d62                  _RPINR47bits = 0xd62
                    0x0d64                  RPINR48 = 0xd64
                    0x0d64                  _RPINR48 = 0xd64
                    0x0d64                  _RPINR48bits = 0xd64
                    0x0d66                  RPINR49 = 0xd66
                    0x0d66                  _RPINR49 = 0xd66
                    0x0d66                  _RPINR49bits = 0xd66
                    0x0d80                  RPOR0 = 0xd80
                    0x0d80                  _RPOR0 = 0xd80
                    0x0d80                  _RPOR0bits = 0xd80
                    0x0d82                  RPOR1 = 0xd82
                    0x0d82                  _RPOR1 = 0xd82
                    0x0d82                  _RPOR1bits = 0xd82
                    0x0d84                  RPOR2 = 0xd84
                    0x0d84                  _RPOR2 = 0xd84
                    0x0d84                  _RPOR2bits = 0xd84
                    0x0d86                  RPOR3 = 0xd86
                    0x0d86                  _RPOR3 = 0xd86
                    0x0d86                  _RPOR3bits = 0xd86
                    0x0d88                  RPOR4 = 0xd88
                    0x0d88                  _RPOR4 = 0xd88
                    0x0d88                  _RPOR4bits = 0xd88
                    0x0d8a                  RPOR5 = 0xd8a
                    0x0d8a                  _RPOR5 = 0xd8a
                    0x0d8a                  _RPOR5bits = 0xd8a
                    0x0d8c                  RPOR6 = 0xd8c
                    0x0d8c                  _RPOR6 = 0xd8c
                    0x0d8c                  _RPOR6bits = 0xd8c
                    0x0d8e                  RPOR7 = 0xd8e
                    0x0d8e                  _RPOR7 = 0xd8e
                    0x0d8e                  _RPOR7bits = 0xd8e
                    0x0d90                  RPOR8 = 0xd90
                    0x0d90                  _RPOR8 = 0xd90
                    0x0d90                  _RPOR8bits = 0xd90
                    0x0d92                  RPOR9 = 0xd92
                    0x0d92                  _RPOR9 = 0xd92
                    0x0d92                  _RPOR9bits = 0xd92
                    0x0d94                  RPOR10 = 0xd94
                    0x0d94                  _RPOR10 = 0xd94
                    0x0d94                  _RPOR10bits = 0xd94
                    0x0d96                  RPOR11 = 0xd96
                    0x0d96                  _RPOR11 = 0xd96
                    0x0d96                  _RPOR11bits = 0xd96
                    0x0d98                  RPOR12 = 0xd98
                    0x0d98                  _RPOR12 = 0xd98
                    0x0d98                  _RPOR12bits = 0xd98
                    0x0d9a                  RPOR13 = 0xd9a
                    0x0d9a                  _RPOR13 = 0xd9a
                    0x0d9a                  _RPOR13bits = 0xd9a
                    0x0d9c                  RPOR14 = 0xd9c
                    0x0d9c                  _RPOR14 = 0xd9c
                    0x0d9c                  _RPOR14bits = 0xd9c
                    0x0d9e                  RPOR15 = 0xd9e
                    0x0d9e                  _RPOR15 = 0xd9e
                    0x0d9e                  _RPOR15bits = 0xd9e
                    0x0da0                  RPOR16 = 0xda0
                    0x0da0                  _RPOR16 = 0xda0
                    0x0da0                  _RPOR16bits = 0xda0
                    0x0da2                  RPOR17 = 0xda2
                    0x0da2                  _RPOR17 = 0xda2
                    0x0da2                  _RPOR17bits = 0xda2
                    0x0da4                  RPOR18 = 0xda4
                    0x0da4                  _RPOR18 = 0xda4
                    0x0da4                  _RPOR18bits = 0xda4
                    0x0da6                  RPOR19 = 0xda6
                    0x0da6                  _RPOR19 = 0xda6
                    0x0da6                  _RPOR19bits = 0xda6
                    0x0e00                  ANSELA = 0xe00
                    0x0e00                  _ANSELA = 0xe00
                    0x0e00                  _ANSELAbits = 0xe00
                    0x0e02                  TRISA = 0xe02
                    0x0e02                  _TRISA = 0xe02
                    0x0e02                  _TRISAbits = 0xe02
                    0x0e04                  PORTA = 0xe04
                    0x0e04                  _PORTA = 0xe04
                    0x0e04                  _PORTAbits = 0xe04
                    0x0e06                  LATA = 0xe06
                    0x0e06                  _LATA = 0xe06
                    0x0e06                  _LATAbits = 0xe06
                    0x0e08                  ODCA = 0xe08
                    0x0e08                  _ODCA = 0xe08
                    0x0e08                  _ODCAbits = 0xe08
                    0x0e0a                  CNPUA = 0xe0a
                    0x0e0a                  _CNPUA = 0xe0a
                    0x0e0a                  _CNPUAbits = 0xe0a
                    0x0e0c                  CNPDA = 0xe0c
                    0x0e0c                  _CNPDA = 0xe0c
                    0x0e0c                  _CNPDAbits = 0xe0c
                    0x0e0e                  CNCONA = 0xe0e
                    0x0e0e                  _CNCONA = 0xe0e
                    0x0e0e                  _CNCONAbits = 0xe0e
                    0x0e10                  CNEN0A = 0xe10
                    0x0e10                  _CNEN0A = 0xe10
                    0x0e10                  _CNEN0Abits = 0xe10
                    0x0e12                  CNSTATA = 0xe12
                    0x0e12                  _CNSTATA = 0xe12
                    0x0e12                  _CNSTATAbits = 0xe12
                    0x0e14                  CNEN1A = 0xe14
                    0x0e14                  _CNEN1A = 0xe14
                    0x0e14                  _CNEN1Abits = 0xe14
                    0x0e16                  CNFA = 0xe16
                    0x0e16                  _CNFA = 0xe16
                    0x0e16                  _CNFAbits = 0xe16
                    0x0e1c                  ANSELB = 0xe1c
                    0x0e1c                  _ANSELB = 0xe1c
                    0x0e1c                  _ANSELBbits = 0xe1c
                    0x0e1e                  TRISB = 0xe1e
                    0x0e1e                  _TRISB = 0xe1e
                    0x0e1e                  _TRISBbits = 0xe1e
                    0x0e20                  PORTB = 0xe20
                    0x0e20                  _PORTB = 0xe20
                    0x0e20                  _PORTBbits = 0xe20
                    0x0e22                  LATB = 0xe22
                    0x0e22                  _LATB = 0xe22
                    0x0e22                  _LATBbits = 0xe22
                    0x0e24                  ODCB = 0xe24
                    0x0e24                  _ODCB = 0xe24
                    0x0e24                  _ODCBbits = 0xe24
                    0x0e26                  CNPUB = 0xe26
                    0x0e26                  _CNPUB = 0xe26
                    0x0e26                  _CNPUBbits = 0xe26
                    0x0e28                  CNPDB = 0xe28
                    0x0e28                  _CNPDB = 0xe28
                    0x0e28                  _CNPDBbits = 0xe28
                    0x0e2a                  CNCONB = 0xe2a
                    0x0e2a                  _CNCONB = 0xe2a
                    0x0e2a                  _CNCONBbits = 0xe2a
                    0x0e2c                  CNEN0B = 0xe2c
                    0x0e2c                  _CNEN0B = 0xe2c
                    0x0e2c                  _CNEN0Bbits = 0xe2c
                    0x0e2e                  CNSTATB = 0xe2e
                    0x0e2e                  _CNSTATB = 0xe2e
                    0x0e2e                  _CNSTATBbits = 0xe2e
                    0x0e30                  CNEN1B = 0xe30
                    0x0e30                  _CNEN1B = 0xe30
                    0x0e30                  _CNEN1Bbits = 0xe30
                    0x0e32                  CNFB = 0xe32
                    0x0e32                  _CNFB = 0xe32
                    0x0e32                  _CNFBbits = 0xe32
                    0x0e38                  ANSELC = 0xe38
                    0x0e38                  _ANSELC = 0xe38
                    0x0e38                  _ANSELCbits = 0xe38
                    0x0e3a                  TRISC = 0xe3a
                    0x0e3a                  _TRISC = 0xe3a
                    0x0e3a                  _TRISCbits = 0xe3a
                    0x0e3c                  PORTC = 0xe3c
                    0x0e3c                  _PORTC = 0xe3c
                    0x0e3c                  _PORTCbits = 0xe3c
                    0x0e3e                  LATC = 0xe3e
                    0x0e3e                  _LATC = 0xe3e
                    0x0e3e                  _LATCbits = 0xe3e
                    0x0e40                  ODCC = 0xe40
                    0x0e40                  _ODCC = 0xe40
                    0x0e40                  _ODCCbits = 0xe40
                    0x0e42                  CNPUC = 0xe42
                    0x0e42                  _CNPUC = 0xe42
                    0x0e42                  _CNPUCbits = 0xe42
                    0x0e44                  CNPDC = 0xe44
                    0x0e44                  _CNPDC = 0xe44
                    0x0e44                  _CNPDCbits = 0xe44
                    0x0e46                  CNCONC = 0xe46
                    0x0e46                  _CNCONC = 0xe46
                    0x0e46                  _CNCONCbits = 0xe46
                    0x0e48                  CNEN0C = 0xe48
                    0x0e48                  _CNEN0C = 0xe48
                    0x0e48                  _CNEN0Cbits = 0xe48
                    0x0e4a                  CNSTATC = 0xe4a
                    0x0e4a                  _CNSTATC = 0xe4a
                    0x0e4a                  _CNSTATCbits = 0xe4a
                    0x0e4c                  CNEN1C = 0xe4c
                    0x0e4c                  _CNEN1C = 0xe4c
                    0x0e4c                  _CNEN1Cbits = 0xe4c
                    0x0e4e                  CNFC = 0xe4e
                    0x0e4e                  _CNFC = 0xe4e
                    0x0e4e                  _CNFCbits = 0xe4e
                    0x0e54                  ANSELD = 0xe54
                    0x0e54                  _ANSELD = 0xe54
                    0x0e54                  _ANSELDbits = 0xe54
                    0x0e56                  TRISD = 0xe56
                    0x0e56                  _TRISD = 0xe56
                    0x0e56                  _TRISDbits = 0xe56
                    0x0e58                  PORTD = 0xe58
                    0x0e58                  _PORTD = 0xe58
                    0x0e58                  _PORTDbits = 0xe58
                    0x0e5a                  LATD = 0xe5a
                    0x0e5a                  _LATD = 0xe5a
                    0x0e5a                  _LATDbits = 0xe5a
                    0x0e5c                  ODCD = 0xe5c
                    0x0e5c                  _ODCD = 0xe5c
                    0x0e5c                  _ODCDbits = 0xe5c
                    0x0e5e                  CNPUD = 0xe5e
                    0x0e5e                  _CNPUD = 0xe5e
                    0x0e5e                  _CNPUDbits = 0xe5e
                    0x0e60                  CNPDD = 0xe60
                    0x0e60                  _CNPDD = 0xe60
                    0x0e60                  _CNPDDbits = 0xe60
                    0x0e62                  CNCOND = 0xe62
                    0x0e62                  _CNCOND = 0xe62
                    0x0e62                  _CNCONDbits = 0xe62
                    0x0e64                  CNEN0D = 0xe64
                    0x0e64                  _CNEN0D = 0xe64
                    0x0e64                  _CNEN0Dbits = 0xe64
                    0x0e66                  CNSTATD = 0xe66
                    0x0e66                  _CNSTATD = 0xe66
                    0x0e66                  _CNSTATDbits = 0xe66
                    0x0e68                  CNEN1D = 0xe68
                    0x0e68                  _CNEN1D = 0xe68
                    0x0e68                  _CNEN1Dbits = 0xe68
                    0x0e6a                  CNFD = 0xe6a
                    0x0e6a                  _CNFD = 0xe6a
                    0x0e6a                  _CNFDbits = 0xe6a
                    0x0efc                  MBISTCON = 0xefc
                    0x0efc                  _MBISTCON = 0xefc
                    0x0efc                  _MBISTCONbits = 0xefc
                    0x0f00                  U3MODE = 0xf00
                    0x0f00                  _U3MODE = 0xf00
                    0x0f00                  _U3MODEbits = 0xf00
                    0x0f02                  U3MODEH = 0xf02
                    0x0f02                  _U3MODEH = 0xf02
                    0x0f02                  _U3MODEHbits = 0xf02
                    0x0f04                  U3STA = 0xf04
                    0x0f04                  _U3STA = 0xf04
                    0x0f04                  _U3STAbits = 0xf04
                    0x0f06                  U3STAH = 0xf06
                    0x0f06                  _U3STAH = 0xf06
                    0x0f06                  _U3STAHbits = 0xf06
                    0x0f08                  U3BRG = 0xf08
                    0x0f08                  _U3BRG = 0xf08
                    0x0f08                  _U3BRGbits = 0xf08
                    0x0f0a                  U3BRGH = 0xf0a
                    0x0f0a                  _U3BRGH = 0xf0a
                    0x0f0a                  _U3BRGHbits = 0xf0a
                    0x0f0c                  U3RXREG = 0xf0c
                    0x0f0c                  _U3RXREG = 0xf0c
                    0x0f0c                  _U3RXREGbits = 0xf0c
                    0x0f10                  U3TXREG = 0xf10
                    0x0f10                  _U3TXREG = 0xf10
                    0x0f10                  _U3TXREGbits = 0xf10
                    0x0f14                  U3P1 = 0xf14
                    0x0f14                  _U3P1 = 0xf14
                    0x0f14                  _U3P1bits = 0xf14
                    0x0f16                  U3P2 = 0xf16
                    0x0f16                  _U3P2 = 0xf16
                    0x0f16                  _U3P2bits = 0xf16
                    0x0f18                  U3P3 = 0xf18
                    0x0f18                  _U3P3 = 0xf18
                    0x0f18                  _U3P3bits = 0xf18
                    0x0f1a                  U3P3H = 0xf1a
                    0x0f1a                  _U3P3H = 0xf1a
                    0x0f1a                  _U3P3Hbits = 0xf1a
                    0x0f1c                  U3TXCHK = 0xf1c
                    0x0f1c                  _U3TXCHK = 0xf1c
                    0x0f1c                  _U3TXCHKbits = 0xf1c
                    0x0f1e                  U3RXCHK = 0xf1e
                    0x0f1e                  _U3RXCHK = 0xf1e
                    0x0f1e                  _U3RXCHKbits = 0xf1e
                    0x0f20                  U3SCCON = 0xf20
                    0x0f20                  _U3SCCON = 0xf20
                    0x0f20                  _U3SCCONbits = 0xf20
                    0x0f22                  U3SCINT = 0xf22
                    0x0f22                  _U3SCINT = 0xf22
                    0x0f22                  _U3SCINTbits = 0xf22
                    0x0f24                  U3INT = 0xf24
                    0x0f24                  _U3INT = 0xf24
                    0x0f24                  _U3INTbits = 0xf24
                    0x0f80                  RCON = 0xf80
                    0x0f80                  _RCON = 0xf80
                    0x0f80                  _RCONbits = 0xf80
                    0x0f84                  OSCCON = 0xf84
                    0x0f84                  _OSCCON = 0xf84
                    0x0f84                  _OSCCONbits = 0xf84
                    0x0f84                  OSCCONL = 0xf84
                    0x0f84                  _OSCCONL = 0xf84
                    0x0f85                  OSCCONH = 0xf85
                    0x0f85                  _OSCCONH = 0xf85
                    0x0f86                  CLKDIV = 0xf86
                    0x0f86                  _CLKDIV = 0xf86
                    0x0f86                  _CLKDIVbits = 0xf86
                    0x0f88                  PLLFBD = 0xf88
                    0x0f88                  _PLLFBD = 0xf88
                    0x0f88                  _PLLFBDbits = 0xf88
                    0x0f8a                  PLLDIV = 0xf8a
                    0x0f8a                  _PLLDIV = 0xf8a
                    0x0f8a                  _PLLDIVbits = 0xf8a
                    0x0f8c                  OSCTUN = 0xf8c
                    0x0f8c                  _OSCTUN = 0xf8c
                    0x0f8c                  _OSCTUNbits = 0xf8c
                    0x0f9c                  DCOTUN = 0xf9c
                    0x0f9c                  _DCOTUN = 0xf9c
                    0x0f9c                  _DCOTUNbits = 0xf9c
                    0x0f9e                  DCOCON = 0xf9e
                    0x0f9e                  _DCOCON = 0xf9e
                    0x0f9e                  _DCOCONbits = 0xf9e
                    0x0fa0                  PMDCON = 0xfa0
                    0x0fa0                  _PMDCON = 0xfa0
                    0x0fa0                  _PMDCONbits = 0xfa0
                    0x0fa4                  PMD1 = 0xfa4
                    0x0fa4                  _PMD1 = 0xfa4
                    0x0fa4                  _PMD1bits = 0xfa4
                    0x0fa6                  PMD2 = 0xfa6
                    0x0fa6                  _PMD2 = 0xfa6
                    0x0fa6                  _PMD2bits = 0xfa6
                    0x0fa8                  PMD3 = 0xfa8
                    0x0fa8                  _PMD3 = 0xfa8
                    0x0fa8                  _PMD3bits = 0xfa8
                    0x0faa                  PMD4 = 0xfaa
                    0x0faa                  _PMD4 = 0xfaa
                    0x0faa                  _PMD4bits = 0xfaa
                    0x0fae                  PMD6 = 0xfae
                    0x0fae                  _PMD6 = 0xfae
                    0x0fae                  _PMD6bits = 0xfae
                    0x0fb0                  PMD7 = 0xfb0
                    0x0fb0                  _PMD7 = 0xfb0
                    0x0fb0                  _PMD7bits = 0xfb0
                    0x0fb2                  PMD8 = 0xfb2
                    0x0fb2                  _PMD8 = 0xfb2
                    0x0fb2                  _PMD8bits = 0xfb2
                    0x0fb4                  WDTCONL = 0xfb4
                    0x0fb4                  _WDTCONL = 0xfb4
                    0x0fb4                  _WDTCONLbits = 0xfb4
                    0x0fb6                  WDTCONH = 0xfb6
                    0x0fb6                  _WDTCONH = 0xfb6
                    0x0fb8                  REFOCON1 = 0xfb8
                    0x0fb8                  _REFOCON1 = 0xfb8
                    0x0fb8                  _REFOCON1bits = 0xfb8
                    0x0fb8                  REFOCONL = 0xfb8
                    0x0fb8                  _REFOCONL = 0xfb8
                    0x0fb8                  _REFOCONLbits = 0xfb8
                    0x0fba                  REFOCON2 = 0xfba
                    0x0fba                  _REFOCON2 = 0xfba
                    0x0fba                  _REFOCON2bits = 0xfba
                    0x0fba                  REFOCONH = 0xfba
                    0x0fba                  _REFOCONH = 0xfba
                    0x0fba                  _REFOCONHbits = 0xfba
                    0x0fbe                  REFOTRIMH = 0xfbe
                    0x0fbe                  _REFOTRIMH = 0xfbe
                    0x0fbe                  _REFOTRIMHbits = 0xfbe
                    0x0fc0                  PCTRAPL = 0xfc0
                    0x0fc0                  _PCTRAPL = 0xfc0
                    0x0fc2                  PCTRAPH = 0xfc2
                    0x0fc2                  _PCTRAPH = 0xfc2
                    0x0fc2                  _PCTRAPHbits = 0xfc2
                    0x0fc4                  FEXL = 0xfc4
                    0x0fc4                  _FEXL = 0xfc4
                    0x0fc6                  FEXH = 0xfc6
                    0x0fc6                  _FEXH = 0xfc6
                    0x0fc6                  _FEXHbits = 0xfc6
                    0x0fc6                  FEXU = 0xfc6
                    0x0fc6                  _FEXU = 0xfc6
                    0x0fc6                  _FEXUbits = 0xfc6
                    0x0fc8                  FEX2L = 0xfc8
                    0x0fc8                  _FEX2L = 0xfc8
                    0x0fca                  FEX2H = 0xfca
                    0x0fca                  _FEX2H = 0xfca
                    0x0fca                  _FEX2Hbits = 0xfca
                    0x0fca                  FEX2U = 0xfca
                    0x0fca                  _FEX2U = 0xfca
                    0x0fca                  _FEX2Ubits = 0xfca
                    0x0fcc                  VISI = 0xfcc
                    0x0fcc                  _VISI = 0xfcc
                    0x0fce                  DPCL = 0xfce
                    0x0fce                  _DPCL = 0xfce
                    0x0fd0                  DPCH = 0xfd0
                    0x0fd0                  _DPCH = 0xfd0
                    0x0fd0                  _DPCHbits = 0xfd0
                    0x0fd2                  APPO = 0xfd2
                    0x0fd2                  _APPO = 0xfd2
                    0x0fd4                  APPI = 0xfd4
                    0x0fd4                  _APPI = 0xfd4
                    0x0fd6                  APPS = 0xfd6
                    0x0fd6                  _APPS = 0xfd6
                    0x0fd6                  _APPSbits = 0xfd6
                    0x0fd8                  STROUTL = 0xfd8
                    0x0fd8                  _STROUTL = 0xfd8
                    0x0fda                  STROUTH = 0xfda
                    0x0fda                  _STROUTH = 0xfda
                    0x0fdc                  STROVCNT = 0xfdc
                    0x0fdc                  _STROVCNT = 0xfdc
                    0x0ffa                  JDATAL = 0xffa
                    0x0ffa                  _JDATAL = 0xffa
                    0x0ffc                  JDATAH = 0xffc
                    0x0ffc                  _JDATAH = 0xffc
                    0x0022                  ACCA = 0x22
                    0x0022                  _ACCA = 0x22
                    0x0028                  ACCB = 0x28
                    0x0028                  _ACCB = 0x28
                    0x02b6                  SPI1 = 0x2b6
                    0x02b6                  _SPI1 = 0x2b6
                    0x02d2                  SPI2 = 0x2d2
                    0x02d2                  _SPI2 = 0x2d2
                    0x023a                  UART1 = 0x23a
                    0x023a                  _UART1 = 0x23a
                    0x0262                  UART2 = 0x262
                    0x0262                  _UART2 = 0x262
                    0x0f02                  UART3 = 0xf02
                    0x0f02                  _UART3 = 0xf02
START GROUP
LOAD c:/program files/microchip/xc16/v2.10/bin/bin/../../lib\libc99-pic30-elf.a
LOAD c:/program files/microchip/xc16/v2.10/bin/bin/../../lib\libm-elf.a
LOAD c:/program files/microchip/xc16/v2.10/bin/bin/../../lib\libc99-elf.a
END GROUP
OUTPUT(dist/default/production/firmware.production.elf elf32-pic30)
LOAD /CW/_FSEC
LOAD jump_table
LOAD default_isr

.debug_pubtypes
                  0x000050       0x1667
 .debug_pubtypes
                  0x000050       0x1667 C:\Users\rbair\AppData\Local\Temp\ccMupnzh.000013b8.o

__c30_signature
                  0x0016b7         0x18
 __c30_signature
                  0x0016b7          0x6 C:\Users\rbair\AppData\Local\Temp\ccMupnzh.000013b8.o
 __c30_signature
                  0x0016bd          0x6 c:/program files/microchip/xc16/v2.10/bin/bin/../../lib\libc99-pic30-elf.a(crt1_extendedch.o)
 __c30_signature
                  0x0016c3          0x6 c:/program files/microchip/xc16/v2.10/bin/bin/../../lib\libc99-pic30-elf.a(delay32ch.Meo)
 __c30_signature
                  0x0016c9          0x6 c:/program files/microchip/xc16/v2.10/bin/bin/../../lib\libc99-elf.a(memcmp.CH_o)

.mr_buffer1         0x1000        0xc00
 .mr_buffer1        0x1000        0xc00 C:\Users\rbair\AppData\Local\Temp\ccMupnzh.000013b8.o
                    0x1000                  _mr_buffer1

.mr_buffer2         0x1c00        0xc00
 .mr_buffer2        0x1c00        0xc00 C:\Users\rbair\AppData\Local\Temp\ccMupnzh.000013b8.o
                    0x1c00                  _mr_buffer2

.queueInfo          0x2800        0x402
 .queueInfo         0x2800        0x402 C:\Users\rbair\AppData\Local\Temp\ccMupnzh.000013b8.o
                    0x2800                  _qinfo

.diskBuffer         0x2c02        0x200
 .diskBuffer        0x2c02        0x200 C:\Users\rbair\AppData\Local\Temp\ccMupnzh.000013b8.o
                    0x2c02                  _diskBuffer

.coreInfo           0x2e02         0x70
 .coreInfo          0x2e02         0x70 C:\Users\rbair\AppData\Local\Temp\ccMupnzh.000013b8.o
                    0x2e02                  _r_coreInfo

.fileSystemInfo
                    0x2e72         0x34
 .fileSystemInfo
                    0x2e72         0x34 C:\Users\rbair\AppData\Local\Temp\ccMupnzh.000013b8.o
                    0x2e72                  _fsInfo

.updateInfo         0x2ea6         0x18
 .updateInfo        0x2ea6         0x18 C:\Users\rbair\AppData\Local\Temp\ccMupnzh.000013b8.o
                    0x2ea6                  _uInfo

.stateVars          0x2ebe          0xe
 .stateVars         0x2ebe          0xe C:\Users\rbair\AppData\Local\Temp\ccMupnzh.000013b8.o
                    0x2ebe                  _state

.diskInfo           0x2ecc          0xc
 .diskInfo          0x2ecc          0xc C:\Users\rbair\AppData\Local\Temp\ccMupnzh.000013b8.o
                    0x2ecc                  _dinfo

.data               0x2ed8          0x4
 .data              0x2ed8          0x4 C:\Users\rbair\AppData\Local\Temp\cc7sN7ja.000013b8.o
                    0x2ed8                  _FlashKey

.config_CTXT4     0x00af44          0x2
 .config_CTXT4    0x00af44          0x2 C:\Users\rbair\AppData\Local\Temp\ccMupnzh.000013b8.o

.config_SPI2PIN
                  0x00af40          0x2
 .config_SPI2PIN
                  0x00af40          0x2 C:\Users\rbair\AppData\Local\Temp\ccMupnzh.000013b8.o

.config_DMTDIS    0x00af3c          0x2
 .config_DMTDIS
                  0x00af3c          0x2 C:\Users\rbair\AppData\Local\Temp\ccMupnzh.000013b8.o

.config_DMTCNTH
                  0x00af38          0x2
 .config_DMTCNTH
                  0x00af38          0x2 C:\Users\rbair\AppData\Local\Temp\ccMupnzh.000013b8.o

.config_DMTCNTL
                  0x00af34          0x2
 .config_DMTCNTL
                  0x00af34          0x2 C:\Users\rbair\AppData\Local\Temp\ccMupnzh.000013b8.o

.config_DMTIVTH
                  0x00af30          0x2
 .config_DMTIVTH
                  0x00af30          0x2 C:\Users\rbair\AppData\Local\Temp\ccMupnzh.000013b8.o

.config_DMTIVTL
                  0x00af2c          0x2
 .config_DMTIVTL
                  0x00af2c          0x2 C:\Users\rbair\AppData\Local\Temp\ccMupnzh.000013b8.o

.config_JTAGEN    0x00af28          0x2
 .config_JTAGEN
                  0x00af28          0x2 C:\Users\rbair\AppData\Local\Temp\ccMupnzh.000013b8.o

.config_BISTDIS
                  0x00af24          0x2
 .config_BISTDIS
                  0x00af24          0x2 C:\Users\rbair\AppData\Local\Temp\ccMupnzh.000013b8.o

.config_FWDTEN    0x00af20          0x2
 .config_FWDTEN
                  0x00af20          0x2 C:\Users\rbair\AppData\Local\Temp\ccMupnzh.000013b8.o

.config_XTBST     0x00af1c          0x2
 .config_XTBST    0x00af1c          0x2 C:\Users\rbair\AppData\Local\Temp\ccMupnzh.000013b8.o

.config_IESO      0x00af18          0x2
 .config_IESO     0x00af18          0x2 C:\Users\rbair\AppData\Local\Temp\ccMupnzh.000013b8.o

.config_BSLIM     0x00af10          0x2
 .config_BSLIM    0x00af10          0x2 C:\Users\rbair\AppData\Local\Temp\ccMupnzh.000013b8.o

.ivt._SoftTrapError
                  0x000010          0x2
 .ivt._SoftTrapError
                  0x000010          0x2 C:\Users\rbair\AppData\Local\Temp\ccMupnzh.000013b8.o

.ivt._HardTrapError
                  0x000008          0x2
 .ivt._HardTrapError
                  0x000008          0x2 C:\Users\rbair\AppData\Local\Temp\ccMupnzh.000013b8.o

.ivt._MathError
                  0x00000c          0x2
 .ivt._MathError
                  0x00000c          0x2 C:\Users\rbair\AppData\Local\Temp\ccMupnzh.000013b8.o

.ivt._AddressError
                  0x000006          0x2
 .ivt._AddressError
                  0x000006          0x2 C:\Users\rbair\AppData\Local\Temp\ccMupnzh.000013b8.o

.ivt._StackError
                  0x00000a          0x2
 .ivt._StackError
                  0x00000a          0x2 C:\Users\rbair\AppData\Local\Temp\ccMupnzh.000013b8.o

.ivt._OscillatorFail
                  0x000004          0x2
 .ivt._OscillatorFail
                  0x000004          0x2 C:\Users\rbair\AppData\Local\Temp\ccMupnzh.000013b8.o

.ivt._CNCInterrupt
                  0x00003a          0x2
 .ivt._CNCInterrupt
                  0x00003a          0x2 C:\Users\rbair\AppData\Local\Temp\ccMupnzh.000013b8.o
